###############################################################################
#                                                                             #
# IAR C/C++ Compiler V8.10.3.10338/W32 for 8051         24/Apr/2018  13:43:37 #
# Copyright 2004-2011 IAR Systems AB.                                         #
#                                                                             #
#    Core               =  plain                                              #
#    Code model         =  banked                                             #
#    Data model         =  large                                              #
#    Calling convention =  xdata reentrant                                    #
#    Constant location  =  data_rom                                           #
#    Dptr setup         =  1,16                                               #
#    Source file        =  H:\ZigBee\code\ZStack-CC2530-2.3.0-1.4.0\Projects\ #
#                          zstack\Samples\SampleApp\Source\SampleApp.c        #
#    Command line       =  -f H:\ZigBee\code\ZStack-CC2530-2.3.0-1.4.0\Projec #
#                          ts\zstack\Samples\SampleApp\CC2530DB\..\..\..\Tool #
#                          s\CC2530DB\f8wCoord.cfg (-DCPU32MHZ                #
#                          -DROOT=__near_func -DMAC_CFG_APP_PENDING_QUEUE=TRU #
#                          E -DZDO_COORDINATOR -DRTR_NWK -DBLINK_LEDS) -f     #
#                          H:\ZigBee\code\ZStack-CC2530-2.3.0-1.4.0\Projects\ #
#                          zstack\Samples\SampleApp\CC2530DB\..\..\..\Tools\C #
#                          C2530DB\f8wConfig.cfg (-DSECURE=0                  #
#                          -DZG_SECURE_DYNAMIC=0 -DREFLECTOR                  #
#                          -DDEFAULT_CHANLIST=0x00000800                      #
#                          -DZDAPP_CONFIG_PAN_ID=0xFFF1                       #
#                          -DNWK_START_DELAY=100 -DEXTENDED_JOINING_RANDOM_MA #
#                          SK=0x007F -DBEACON_REQUEST_DELAY=100               #
#                          -DBEACON_REQ_DELAY_MASK=0x00FF                     #
#                          -DROUTE_EXPIRY_TIME=30 -DAPSC_ACK_WAIT_DURATION_PO #
#                          LLED=3000 -DNWK_INDIRECT_MSG_TIMEOUT=7             #
#                          -DMAX_RREQ_ENTRIES=8 -DAPSC_MAX_FRAME_RETRIES=3    #
#                          -DNWK_MAX_DATA_RETRIES=2                           #
#                          -DMAX_POLL_FAILURE_RETRIES=2 -DMAX_BCAST=9         #
#                          -DAPS_MAX_GROUPS=16 -DMAX_RTG_ENTRIES=40           #
#                          -DNWK_MAX_BINDING_ENTRIES=4                        #
#                          -DMAX_BINDING_CLUSTER_IDS=4 "-DDEFAULT_KEY={0x01,  #
#                          0x03, 0x05, 0x07, 0x09, 0x0B, 0x0D, 0x0F, 0x00,    #
#                          0x02, 0x04, 0x06, 0x08, 0x0A, 0x0C, 0x0D}"         #
#                          -DMAC_MAX_FRAME_SIZE=116 "-DCONST=const __code"    #
#                          -DGENERIC=__generic -DRFD_RCVC_ALWAYS_ON=FALSE     #
#                          -DPOLL_RATE=1000 -DQUEUED_POLL_RATE=100            #
#                          -DRESPONSE_POLL_RATE=100) -DREJOIN_POLL_RATE=440   #
#                          H:\ZigBee\code\ZStack-CC2530-2.3.0-1.4.0\Projects\ #
#                          zstack\Samples\SampleApp\Source\SampleApp.c -D     #
#                          ZIGBEEPRO -D ZTOOL_P1 -D xMT_TASK -D xMT_SYS_FUNC  #
#                          -D xMT_ZDO_FUNC -D LCD_SUPPORTED=DEBUG -lC         #
#                          H:\ZigBee\code\ZStack-CC2530-2.3.0-1.4.0\Projects\ #
#                          zstack\Samples\SampleApp\CC2530DB\CoordinatorEB-Pr #
#                          o\List\ -lA H:\ZigBee\code\ZStack-CC2530-2.3.0-1.4 #
#                          .0\Projects\zstack\Samples\SampleApp\CC2530DB\Coor #
#                          dinatorEB-Pro\List\ --diag_suppress Pe001,Pa010    #
#                          -o H:\ZigBee\code\ZStack-CC2530-2.3.0-1.4.0\Projec #
#                          ts\zstack\Samples\SampleApp\CC2530DB\CoordinatorEB #
#                          -Pro\Obj\ -e --debug --core=plain --dptr=16,1      #
#                          --data_model=large --code_model=banked             #
#                          --calling_convention=xdata_reentrant               #
#                          --place_constants=data_rom --nr_virtual_regs 16    #
#                          -I H:\ZigBee\code\ZStack-CC2530-2.3.0-1.4.0\Projec #
#                          ts\zstack\Samples\SampleApp\CC2530DB\ -I           #
#                          H:\ZigBee\code\ZStack-CC2530-2.3.0-1.4.0\Projects\ #
#                          zstack\Samples\SampleApp\CC2530DB\..\SOURCE\ -I    #
#                          H:\ZigBee\code\ZStack-CC2530-2.3.0-1.4.0\Projects\ #
#                          zstack\Samples\SampleApp\CC2530DB\..\..\..\ZMAIN\T #
#                          I2530DB\ -I H:\ZigBee\code\ZStack-CC2530-2.3.0-1.4 #
#                          .0\Projects\zstack\Samples\SampleApp\CC2530DB\..\. #
#                          .\..\..\..\COMPONENTS\MT\ -I                       #
#                          H:\ZigBee\code\ZStack-CC2530-2.3.0-1.4.0\Projects\ #
#                          zstack\Samples\SampleApp\CC2530DB\..\..\..\..\..\C #
#                          OMPONENTS\HAL\INCLUDE\ -I                          #
#                          H:\ZigBee\code\ZStack-CC2530-2.3.0-1.4.0\Projects\ #
#                          zstack\Samples\SampleApp\CC2530DB\..\..\..\..\..\C #
#                          OMPONENTS\HAL\TARGET\CC2530EB\ -I                  #
#                          H:\ZigBee\code\ZStack-CC2530-2.3.0-1.4.0\Projects\ #
#                          zstack\Samples\SampleApp\CC2530DB\..\..\..\..\..\C #
#                          OMPONENTS\OSAL\MCU\CCSOC\ -I                       #
#                          H:\ZigBee\code\ZStack-CC2530-2.3.0-1.4.0\Projects\ #
#                          zstack\Samples\SampleApp\CC2530DB\..\..\..\..\..\C #
#                          OMPONENTS\OSAL\INCLUDE\ -I                         #
#                          H:\ZigBee\code\ZStack-CC2530-2.3.0-1.4.0\Projects\ #
#                          zstack\Samples\SampleApp\CC2530DB\..\..\..\..\..\C #
#                          OMPONENTS\STACK\AF\ -I H:\ZigBee\code\ZStack-CC253 #
#                          0-2.3.0-1.4.0\Projects\zstack\Samples\SampleApp\CC #
#                          2530DB\..\..\..\..\..\COMPONENTS\STACK\NWK\ -I     #
#                          H:\ZigBee\code\ZStack-CC2530-2.3.0-1.4.0\Projects\ #
#                          zstack\Samples\SampleApp\CC2530DB\..\..\..\..\..\C #
#                          OMPONENTS\STACK\SEC\ -I H:\ZigBee\code\ZStack-CC25 #
#                          30-2.3.0-1.4.0\Projects\zstack\Samples\SampleApp\C #
#                          C2530DB\..\..\..\..\..\COMPONENTS\STACK\SAPI\ -I   #
#                          H:\ZigBee\code\ZStack-CC2530-2.3.0-1.4.0\Projects\ #
#                          zstack\Samples\SampleApp\CC2530DB\..\..\..\..\..\C #
#                          OMPONENTS\STACK\SYS\ -I H:\ZigBee\code\ZStack-CC25 #
#                          30-2.3.0-1.4.0\Projects\zstack\Samples\SampleApp\C #
#                          C2530DB\..\..\..\..\..\COMPONENTS\STACK\ZDO\ -I    #
#                          H:\ZigBee\code\ZStack-CC2530-2.3.0-1.4.0\Projects\ #
#                          zstack\Samples\SampleApp\CC2530DB\..\..\..\..\..\C #
#                          OMPONENTS\ZMAC\F8W\ -I H:\ZigBee\code\ZStack-CC253 #
#                          0-2.3.0-1.4.0\Projects\zstack\Samples\SampleApp\CC #
#                          2530DB\..\..\..\..\..\COMPONENTS\ZMAC\ -I          #
#                          H:\ZigBee\code\ZStack-CC2530-2.3.0-1.4.0\Projects\ #
#                          zstack\Samples\SampleApp\CC2530DB\..\..\..\..\..\C #
#                          OMPONENTS\SERVICES\SADDR\ -I                       #
#                          H:\ZigBee\code\ZStack-CC2530-2.3.0-1.4.0\Projects\ #
#                          zstack\Samples\SampleApp\CC2530DB\..\..\..\..\..\C #
#                          OMPONENTS\SERVICES\SDATA\ -I                       #
#                          H:\ZigBee\code\ZStack-CC2530-2.3.0-1.4.0\Projects\ #
#                          zstack\Samples\SampleApp\CC2530DB\..\..\..\..\..\C #
#                          OMPONENTS\MAC\INCLUDE\ -I                          #
#                          H:\ZigBee\code\ZStack-CC2530-2.3.0-1.4.0\Projects\ #
#                          zstack\Samples\SampleApp\CC2530DB\..\..\..\..\..\C #
#                          OMPONENTS\MAC\HIGH_LEVEL\ -I                       #
#                          H:\ZigBee\code\ZStack-CC2530-2.3.0-1.4.0\Projects\ #
#                          zstack\Samples\SampleApp\CC2530DB\..\..\..\..\..\C #
#                          OMPONENTS\MAC\LOW_LEVEL\srf04\ -I                  #
#                          H:\ZigBee\code\ZStack-CC2530-2.3.0-1.4.0\Projects\ #
#                          zstack\Samples\SampleApp\CC2530DB\..\..\..\..\..\C #
#                          OMPONENTS\MAC\LOW_LEVEL\srf04\SINGLE_CHIP\ -Ohz    #
#                          --require_prototypes                               #
#    List file          =  H:\ZigBee\code\ZStack-CC2530-2.3.0-1.4.0\Projects\ #
#                          zstack\Samples\SampleApp\CC2530DB\CoordinatorEB-Pr #
#                          o\List\SampleApp.lst                               #
#    Object file        =  H:\ZigBee\code\ZStack-CC2530-2.3.0-1.4.0\Projects\ #
#                          zstack\Samples\SampleApp\CC2530DB\CoordinatorEB-Pr #
#                          o\Obj\SampleApp.r51                                #
#                                                                             #
#                                                                             #
###############################################################################

H:\ZigBee\code\ZStack-CC2530-2.3.0-1.4.0\Projects\zstack\Samples\SampleApp\Source\SampleApp.c
      1          /**************************************************************************************************
      2            Filename:       SampleApp.c
      3            Revised:        $Date: 2009-03-18 15:56:27 -0700 (Wed, 18 Mar 2009) $
      4            Revision:       $Revision: 19453 $
      5          
      6            Description:    Sample Application (no Profile).
      7          
      8          
      9            Copyright 2007 Texas Instruments Incorporated. All rights reserved.
     10          
     11            IMPORTANT: Your use of this Software is limited to those specific rights
     12            granted under the terms of a software license agreement between the user
     13            who downloaded the software, his/her employer (which must be your employer)
     14            and Texas Instruments Incorporated (the "License").  You may not use this
     15            Software unless you agree to abide by the terms of the License. The License
     16            limits your use, and you acknowledge, that the Software may not be modified,
     17            copied or distributed unless embedded on a Texas Instruments microcontroller
     18            or used solely and exclusively in conjunction with a Texas Instruments radio
     19            frequency transceiver, which is integrated into your product.  Other than for
     20            the foregoing purpose, you may not use, reproduce, copy, prepare derivative
     21            works of, modify, distribute, perform, display or sell this Software and/or
     22            its documentation for any purpose.
     23          
     24            YOU FURTHER ACKNOWLEDGE AND AGREE THAT THE SOFTWARE AND DOCUMENTATION ARE
     25            PROVIDED AS IS?WITHOUT WARRANTY OF ANY KIND, EITHER EXPRESS OR IMPLIED,
     26            INCLUDING WITHOUT LIMITATION, ANY WARRANTY OF MERCHANTABILITY, TITLE,
     27            NON-INFRINGEMENT AND FITNESS FOR A PARTICULAR PURPOSE. IN NO EVENT SHALL
     28            TEXAS INSTRUMENTS OR ITS LICENSORS BE LIABLE OR OBLIGATED UNDER CONTRACT,
     29            NEGLIGENCE, STRICT LIABILITY, CONTRIBUTION, BREACH OF WARRANTY, OR OTHER
     30            LEGAL EQUITABLE THEORY ANY DIRECT OR INDIRECT DAMAGES OR EXPENSES
     31            INCLUDING BUT NOT LIMITED TO ANY INCIDENTAL, SPECIAL, INDIRECT, PUNITIVE
     32            OR CONSEQUENTIAL DAMAGES, LOST PROFITS OR LOST DATA, COST OF PROCUREMENT
     33            OF SUBSTITUTE GOODS, TECHNOLOGY, SERVICES, OR ANY CLAIMS BY THIRD PARTIES
     34            (INCLUDING BUT NOT LIMITED TO ANY DEFENSE THEREOF), OR OTHER SIMILAR COSTS.
     35          
     36            Should you have any questions regarding your right to use this Software,
     37            contact Texas Instruments Incorporated at www.TI.com.
     38          **************************************************************************************************/
     39          
     40          /*********************************************************************
     41            This application isn't intended to do anything useful, it is
     42            intended to be a simple example of an application's structure.
     43          
     44            This application sends it's messages either as broadcast or
     45            broadcast filtered group messages.  The other (more normal)
     46            message addressing is unicast.  Most of the other sample
     47            applications are written to support the unicast message model.
     48          
     49            Key control:
     50              SW1:  Sends a flash command to all devices in Group 1.
     51              SW2:  Adds/Removes (toggles) this device in and out
     52                    of Group 1.  This will enable and disable the
     53                    reception of the flash command.
     54          *********************************************************************/
     55          
     56          /*********************************************************************
     57           * INCLUDES
     58           */
     59          #include <stdio.h>
     60          #include <string.h>
     61          #include <stdlib.h>
     62          
     63          #include "OSAL.h"
     64          #include "ZGlobals.h"
     65          #include "AF.h"
     66          #include "aps_groups.h"
     67          #include "ZDApp.h"
     68          
     69          #include "SampleApp.h"
     70          #include "SampleAppHw.h"
     71          
     72          #include "OnBoard.h"

   \                                 In  segment SFR_AN, at 0x80
   \   union <unnamed> volatile __sfr _A_P0
   \                     _A_P0:
   \   000000                DS 1

   \                                 In  segment SFR_AN, at 0xf3
   \   unsigned char volatile __sfr P0SEL
   \                     P0SEL:
   \   000000                DS 1
     73          
     74          /* HAL */
     75          #include "hal_lcd.h"
     76          #include "hal_led.h"
     77          #include "hal_key.h"
     78          #include "MT_UART.h"
     79          #include "MT_APP.h"
     80          #include "MT.h"
     81          #include "DHT11.h"
     82          #include "WIFI.H"
     83          
     84          /*********************************************************************
     85           * MACROS
     86           */
     87          #define COORD_ADDR   0x00
     88          #define ED_ADDR      0x01
     89          #define UART0        0x00
     90          #define MAX_NODE     0x04
     91          #define UART_DEBUG   0x01        //调试宏,通过串口输出协调器和终端的IEEE、短地址
     92          #define LAMP_PIN     P0_4        //定义P0.4口为继电器输入端
     93          #define GAS_PIN      P0_5        //定义P0.5口为烟雾传感器的输入端  
     94          #define RT_PIN      P0_6        //定义P0.6口为人体红外热释电传感器的输入端  
     95          #define ARRAY_SIZE(arr) (sizeof(arr) / sizeof(arr)[0])
     96          /*********************************************************************
     97           * CONSTANTS
     98           */
     99          
    100          /*********************************************************************
    101           * TYPEDEFS
    102           */
    103          
    104          /*********************************************************************
    105           * GLOBAL VARIABLES
    106           */
    107          
    108          // This list should be filled with Application specific Cluster IDs.

   \                                 In  segment XDATA_ROM_C, align 1
    109          const cId_t SampleApp_ClusterList[SAMPLEAPP_MAX_CLUSTERS] =
   \                     SampleApp_ClusterList:
   \   000000   0100         DW 1
   \   000002   0200         DW 2
    110          {
    111            SAMPLEAPP_PERIODIC_CLUSTERID,
    112            SAMPLEAPP_FLASH_CLUSTERID
    113          };
    114          

   \                                 In  segment XDATA_ROM_C, align 1
    115          const SimpleDescriptionFormat_t SampleApp_SimpleDesc =
   \                     SampleApp_SimpleDesc:
   \   000000   14           DB 20
   \   000001   080F         DW 3848
   \   000003   0100         DW 1
   \   000005   00           DB 0
   \   000006   02           DB 2
   \   000007   ....         DW SampleApp_ClusterList
   \   000009   02           DB 2
   \   00000A   ....         DW SampleApp_ClusterList
    116          {
    117            SAMPLEAPP_ENDPOINT,              //  int Endpoint;
    118            SAMPLEAPP_PROFID,                //  uint16 AppProfId[2];
    119            SAMPLEAPP_DEVICEID,              //  uint16 AppDeviceId[2];
    120            SAMPLEAPP_DEVICE_VERSION,        //  int   AppDevVer:4;
    121            SAMPLEAPP_FLAGS,                 //  int   AppFlags:4;
    122            SAMPLEAPP_MAX_CLUSTERS,          //  uint8  AppNumInClusters;
    123            (cId_t *)SampleApp_ClusterList,  //  uint8 *pAppInClusterList;
    124            SAMPLEAPP_MAX_CLUSTERS,          //  uint8  AppNumInClusters;
    125            (cId_t *)SampleApp_ClusterList   //  uint8 *pAppInClusterList;
    126          };
    127          
    128          // This is the Endpoint/Interface description.  It is defined here, but
    129          // filled-in in SampleApp_Init().  Another way to go would be to fill
    130          // in the structure here and make it a "const" (in code space).  The
    131          // way it's defined in this sample app it is define in RAM.

   \                                 In  segment XDATA_Z, align 1, keep-with-next
    132          endPointDesc_t SampleApp_epDesc;
   \                     SampleApp_epDesc:
   \   000000                DS 6
   \   000006                REQUIRE __INIT_XDATA_Z
    133          
    134          /*********************************************************************
    135           * EXTERNAL VARIABLES
    136           */
    137          
    138          /*********************************************************************
    139           * EXTERNAL FUNCTIONS
    140           */
    141          
    142          /*********************************************************************
    143           * LOCAL VARIABLES
    144           */

   \                                 In  segment XDATA_Z, align 1, keep-with-next
    145          uint8 SampleApp_TaskID;   // Task ID for internal task/event processing
   \                     SampleApp_TaskID:
   \   000000                DS 1
   \   000001                REQUIRE __INIT_XDATA_Z
    146                                    // This variable will be received when
    147                                    // SampleApp_Init() is called.

   \                                 In  segment XDATA_Z, align 1, keep-with-next
    148          devStates_t SampleApp_NwkState;
   \                     SampleApp_NwkState:
   \   000000                DS 1
   \   000001                REQUIRE __INIT_XDATA_Z
    149          

   \                                 In  segment XDATA_Z, align 1, keep-with-next
    150          uint8 SampleApp_TransID;  // This is the unique message ID (counter)
   \                     SampleApp_TransID:
   \   000000                DS 1
   \   000001                REQUIRE __INIT_XDATA_Z
    151          

   \                                 In  segment XDATA_Z, align 1, keep-with-next
    152          afAddrType_t SampleApp_Periodic_DstAddr; //广播
   \                     SampleApp_Periodic_DstAddr:
   \   000000                DS 12
   \   00000C                REQUIRE __INIT_XDATA_Z

   \                                 In  segment XDATA_Z, align 1, keep-with-next
    153          afAddrType_t SampleApp_Flash_DstAddr;    //组播
   \                     SampleApp_Flash_DstAddr:
   \   000000                DS 12
   \   00000C                REQUIRE __INIT_XDATA_Z

   \                                 In  segment XDATA_Z, align 1, keep-with-next
    154          afAddrType_t SampleApp_P2P_DstAddr;      //点播
   \                     SampleApp_P2P_DstAddr:
   \   000000                DS 12
   \   00000C                REQUIRE __INIT_XDATA_Z
    155          

   \                                 In  segment XDATA_Z, align 1, keep-with-next
    156          aps_Group_t SampleApp_Group;
   \                     SampleApp_Group:
   \   000000                DS 18
   \   000012                REQUIRE __INIT_XDATA_Z
    157          

   \                                 In  segment XDATA_Z, align 1, keep-with-next
    158          uint8 SampleAppPeriodicCounter = 0;
   \                     SampleAppPeriodicCounter:
   \   000000                DS 1
   \   000001                REQUIRE __INIT_XDATA_Z

   \                                 In  segment XDATA_Z, align 1, keep-with-next
    159          uint8 SampleAppFlashCounter = 0;
   \                     SampleAppFlashCounter:
   \   000000                DS 1
   \   000001                REQUIRE __INIT_XDATA_Z
    160          
    161          //通过域名形式连接到服务器

   \                                 In  segment XDATA_I, align 1, keep-with-next
    162          char *cipstart = "AT+CIPSTART=\"TCP\",\"106.14.151.117\",35447\r\n"; 
   \                     cipstart:
   \   000000                DS 2
   \   000002                REQUIRE `?<Initializer for cipstart>`
   \   000002                REQUIRE __INIT_XDATA_I

   \                                 In  segment XDATA_I, align 1, keep-with-next
    163          char Seddstr[10] = "abcdefg"; //被发送的字符串
   \                     Seddstr:
   \   000000                DS 10
   \   00000A                REQUIRE `?<Initializer for Seddstr>`
   \   00000A                REQUIRE __INIT_XDATA_I

   \                                 In  segment XDATA_I, align 1, keep-with-next
    164          char *cwjap = "AT+CWJAP=\"Lee\",\"woshierbi\"\r\n";
   \                     cwjap:
   \   000000                DS 2
   \   000002                REQUIRE `?<Initializer for cwjap>`
   \   000002                REQUIRE __INIT_XDATA_I

   \                                 In  segment XDATA_I, align 1, keep-with-next
    165          char *cwmode = "AT+CWMODE=3\r\n";
   \                     cwmode:
   \   000000                DS 2
   \   000002                REQUIRE `?<Initializer for cwmode>`
   \   000002                REQUIRE __INIT_XDATA_I
    166          /*********************************************************************
    167           * LOCAL FUNCTIONS
    168           */
    169          void SampleApp_HandleKeys( uint8 shift, uint8 keys );
    170          void SampleApp_MessageMSGCB( afIncomingMSGPacket_t *pckt );
    171          void SampleApp_SendPeriodicMessage( void );
    172          void SampleApp_SendFlashMessage( uint16 flashTime );
    173          void SampleApp_Send_P2P_Message(void);
    174          static uint8 GetLamp( void );
    175          static uint8 GetGas( void );
    176          static uint8 GetRT( void );
    177          void WifiSendData(char a[]);
    178          /*********************************************************************
    179           * NETWORK LAYER CALLBACKS
    180           */
    181          
    182          /*********************************************************************
    183           * PUBLIC FUNCTIONS
    184           */
    185          
    186          /*********************************************************************
    187           * @fn      SampleApp_Init
    188           *
    189           * @brief   Initialization function for the Generic App Task.
    190           *          This is called during initialization and should contain
    191           *          any application specific initialization (ie. hardware
    192           *          initialization/setup, table initialization, power up
    193           *          notificaiton ... ).
    194           *
    195           * @param   task_id - the ID assigned by OSAL.  This ID should be
    196           *                    used to send messages and set timers.
    197           *
    198           * @return  none
    199           */

   \                                 In  segment BANKED_CODE, align 1, keep-with-next
    200          void Init_Wifi(void)
   \                     Init_Wifi:
    201          {
   \   000000   74F6         MOV     A,#-0xa
   \   000002   12....       LCALL   ?BANKED_ENTER_XDATA
   \   000005                ; Saved register size: 10
   \   000005                ; Auto size: 0
    202          
    203            HalLcdWriteString( "initwifi", HAL_LCD_LINE_2 );      
   \   000005                ; Setup parameters for call to function HalLcdWriteString
   \   000005   7902         MOV     R1,#0x2
   \   000007   7A..         MOV     R2,#`?<Constant "initwifi">` & 0xff
   \   000009   7B..         MOV     R3,#(`?<Constant "initwifi">` >> 8) & 0xff
   \   00000B   12....       LCALL   ??HalLcdWriteString?relay
    204           
    205            
    206            //HalUARTWrite(UART0, cwmode, strlen(cwmode));
    207            HalUARTWrite(UART0, cwjap, strlen(cwjap));
                                       ^
Warning[Pe167]: argument of type "char *" is incompatible with parameter of
          type "unsigned char *"
   \   00000E                ; Setup parameters for call to function strlen
   \   00000E   90....       MOV     DPTR,#cwjap
   \   000011   12....       LCALL   ?Subroutine3 & 0xFFFF
   \                     ??CrossCallReturnLabel_2:
   \   000014                ; Setup parameters for call to function HalUARTWrite
   \   000014   90....       MOV     DPTR,#cwjap
   \   000017   12....       LCALL   ?Subroutine4 & 0xFFFF
    208            HalLcdWriteString( "Connect-Wifi..", HAL_LCD_LINE_3 );
   \                     ??CrossCallReturnLabel_4:
   \   00001A   7A..         MOV     R2,#`?<Constant "Connect-Wifi..">` & 0xff
   \   00001C   7B..         MOV     R3,#(`?<Constant "Connect-Wifi..">` >> 8) & 0xff
   \   00001E   12....       LCALL   ??HalLcdWriteString?relay
    209            Delay_ms(2000);
   \   000021                ; Setup parameters for call to function Delay_ms
   \   000021   7AD0         MOV     R2,#-0x30
   \   000023   7B07         MOV     R3,#0x7
   \   000025   12....       LCALL   ??Delay_ms?relay
    210            HalUARTWrite(UART0, cipstart, strlen(cipstart));
                                       ^
Warning[Pe167]: argument of type "char *" is incompatible with parameter of
          type "unsigned char *"
   \   000028                ; Setup parameters for call to function strlen
   \   000028   90....       MOV     DPTR,#cipstart
   \   00002B   12....       LCALL   ?Subroutine3 & 0xFFFF
   \                     ??CrossCallReturnLabel_3:
   \   00002E                ; Setup parameters for call to function HalUARTWrite
   \   00002E   90....       MOV     DPTR,#cipstart
   \   000031   12....       LCALL   ?Subroutine4 & 0xFFFF
    211            HalLcdWriteString( "Connect-Server..", HAL_LCD_LINE_3 );
   \                     ??CrossCallReturnLabel_5:
   \   000034   7A..         MOV     R2,#`?<Constant "Connect-Server..">` & 0xff
   \   000036   7B..         MOV     R3,#(`?<Constant "Connect-Server..">` >> 8) & 0xff
   \   000038   12....       LCALL   ??HalLcdWriteString?relay
    212            Delay_ms(500);
   \   00003B                ; Setup parameters for call to function Delay_ms
   \   00003B   7AF4         MOV     R2,#-0xc
   \   00003D   7B01         MOV     R3,#0x1
   \   00003F   12....       LCALL   ??Delay_ms?relay
    213            HalUARTWrite(UART0, "AT+CIPMUX=0\r\n", 12);
   \   000042                ; Setup parameters for call to function HalUARTWrite
   \   000042   7C0C         MOV     R4,#0xc
   \   000044   7D00         MOV     R5,#0x0
   \   000046   7A..         MOV     R2,#`?<Constant "AT+CIPMUX=0\\r\\n">` & 0xff
   \   000048   7B..         MOV     R3,#(`?<Constant "AT+CIPMUX=0\\r\\n">` >> 8) & 0xff
   \   00004A   7900         MOV     R1,#0x0
   \   00004C   12....       LCALL   ??HalUARTWrite?relay
    214            Delay_ms(500);
   \   00004F                ; Setup parameters for call to function Delay_ms
   \   00004F   7AF4         MOV     R2,#-0xc
   \   000051   7B01         MOV     R3,#0x1
   \   000053   12....       LCALL   ??Delay_ms?relay
    215          } 
   \   000056   02....       LJMP    ??Subroutine12_0 & 0xFFFF

   \                                 In  segment BANKED_CODE, align 1, keep-with-next
   \                     ?Subroutine4:
   \   000000   12....       LCALL   ??Subroutine10_0 & 0xFFFF
   \                     ??CrossCallReturnLabel_9:
   \   000003   12....       LCALL   ??Subroutine11_0 & 0xFFFF
   \                     ??CrossCallReturnLabel_14:
   \   000006   22           RET

   \                                 In  segment BANKED_CODE, align 1, keep-with-next
   \                     ?Subroutine3:
   \   000000   12....       LCALL   ??Subroutine10_0 & 0xFFFF
   \                     ??CrossCallReturnLabel_8:
   \   000003   12....       LCALL   ??strlen?relay
   \   000006   8A..         MOV     ?V0 + 0,R2
   \   000008   8B..         MOV     ?V0 + 1,R3
   \   00000A   AC..         MOV     R4,?V0 + 0
   \   00000C   AD..         MOV     R5,?V0 + 1
   \   00000E   22           RET

   \                                 In  segment BANKED_CODE, align 1, keep-with-next
   \                     ??Subroutine10_0:
   \   000000   E0           MOVX    A,@DPTR
   \   000001   FA           MOV     R2,A
   \   000002   A3           INC     DPTR
   \   000003   E0           MOVX    A,@DPTR
   \   000004   FB           MOV     R3,A
   \   000005   22           RET

   \                                 In  segment BANKED_CODE, align 1, keep-with-next
   \                     ??Subroutine11_0:
   \   000000   7900         MOV     R1,#0x0
   \   000002   12....       LCALL   ??HalUARTWrite?relay
   \   000005                ; Setup parameters for call to function HalLcdWriteString
   \   000005                ; Setup parameters for call to function HalLcdWriteString
   \   000005                ; Setup parameters for call to function HalLcdWriteString
   \   000005                ; Setup parameters for call to function HalLcdWriteString
   \   000005                ; Setup parameters for call to function HalLcdWriteString
   \   000005   7903         MOV     R1,#0x3
   \   000007   22           RET

   \                                 In  segment BANKED_CODE, align 1, keep-with-next
   \                     ??Subroutine12_0:
   \   000000   7F02         MOV     R7,#0x2
   \   000002   02....       LJMP    ?BANKED_LEAVE_XDATA
    216          

   \                                 In  segment BANKED_CODE, align 1, keep-with-next
    217          void WifiSendData(char a[])
   \                     WifiSendData:
    218          {
   \   000000   74F6         MOV     A,#-0xa
   \   000002   12....       LCALL   ?BANKED_ENTER_XDATA
   \   000005                ; Saved register size: 10
   \   000005                ; Auto size: 100
   \   000005   749C         MOV     A,#-0x64
   \   000007   12....       LCALL   ?ALLOC_XSTACK8
    219              char SendBuf[50]="";
   \   00000A   7432         MOV     A,#0x32
   \   00000C   12....       LCALL   ?XSTACK_DISP0_8
   \   00000F   AC82         MOV     R4,DPL
   \   000011   AD83         MOV     R5,DPH
   \   000013   7583..       MOV     DPH,#(`?<Constant "">` >> 8) & 0xff
   \   000016   7582..       MOV     DPL,#`?<Constant "">` & 0xff
   \   000019   7432         MOV     A,#0x32
   \   00001B   12....       LCALL   ?MOVE_LONG8_XDATA_XDATA
    220              sprintf(SendBuf,"%s#\r\n",a);
   \   00001E                ; Setup parameters for call to function sprintf
   \   00001E   8A..         MOV     ?V0 + 0,R2
   \   000020   8B..         MOV     ?V0 + 1,R3
   \   000022   78..         MOV     R0,#?V0 + 0
   \   000024   12....       LCALL   ?PUSH_XSTACK_I_TWO
   \   000027   7C..         MOV     R4,#`?<Constant "%s#\\r\\n">` & 0xff
   \   000029   7D..         MOV     R5,#(`?<Constant "%s#\\r\\n">` >> 8) & 0xff
   \   00002B   7434         MOV     A,#0x34
   \   00002D   12....       LCALL   ?XSTACK_DISP0_8
   \   000030   AA82         MOV     R2,DPL
   \   000032   AB83         MOV     R3,DPH
   \   000034   12....       LCALL   ??sprintf?relay
   \   000037   7402         MOV     A,#0x2
   \   000039   12....       LCALL   ?DEALLOC_XSTACK8
    221              
    222              char Buf[50]="";
   \   00003C   85..82       MOV     DPL,?XSP + 0
   \   00003F   85..83       MOV     DPH,?XSP + 1
   \   000042   AC82         MOV     R4,DPL
   \   000044   AD83         MOV     R5,DPH
   \   000046   7583..       MOV     DPH,#(`?<Constant "">_1` >> 8) & 0xff
   \   000049   7582..       MOV     DPL,#`?<Constant "">_1` & 0xff
   \   00004C   7432         MOV     A,#0x32
   \   00004E   12....       LCALL   ?MOVE_LONG8_XDATA_XDATA
    223              sprintf(Buf,"AT+CIPSEND=%d\r\n",strlen(SendBuf));
   \   000051                ; Setup parameters for call to function sprintf
   \   000051                ; Setup parameters for call to function strlen
   \   000051   7432         MOV     A,#0x32
   \   000053   12....       LCALL   ?XSTACK_DISP0_8
   \   000056   AA82         MOV     R2,DPL
   \   000058   AB83         MOV     R3,DPH
   \   00005A   12....       LCALL   ??strlen?relay
   \   00005D   8A..         MOV     ?V0 + 0,R2
   \   00005F   8B..         MOV     ?V0 + 1,R3
   \   000061   78..         MOV     R0,#?V0 + 0
   \   000063   12....       LCALL   ?PUSH_XSTACK_I_TWO
   \   000066   7C..         MOV     R4,#`?<Constant "AT+CIPSEND=%d\\r\\n">` & 0xff
   \   000068   7D..         MOV     R5,#(`?<Constant "AT+CIPSEND=%d\\r\\n">` >> 8) & 0xff
   \   00006A   7402         MOV     A,#0x2
   \   00006C   12....       LCALL   ?XSTACK_DISP0_8
   \   00006F   AA82         MOV     R2,DPL
   \   000071   AB83         MOV     R3,DPH
   \   000073   12....       LCALL   ??sprintf?relay
   \   000076   7402         MOV     A,#0x2
   \   000078   12....       LCALL   ?DEALLOC_XSTACK8
    224          
    225              HalUARTWrite(UART0, Buf, strlen(Buf));
                                         ^
Warning[Pe167]: argument of type "char *" is incompatible with parameter of
          type "unsigned char *"
   \   00007B                ; Setup parameters for call to function HalUARTWrite
   \   00007B                ; Setup parameters for call to function strlen
   \   00007B   85..82       MOV     DPL,?XSP + 0
   \   00007E   85..83       MOV     DPH,?XSP + 1
   \   000081   AA82         MOV     R2,DPL
   \   000083   AB83         MOV     R3,DPH
   \   000085   12....       LCALL   ??strlen?relay
   \   000088   EA           MOV     A,R2
   \   000089   FC           MOV     R4,A
   \   00008A   EB           MOV     A,R3
   \   00008B   FD           MOV     R5,A
   \   00008C   85..82       MOV     DPL,?XSP + 0
   \   00008F   85..83       MOV     DPH,?XSP + 1
   \   000092   AA82         MOV     R2,DPL
   \   000094   AB83         MOV     R3,DPH
   \   000096   7900         MOV     R1,#0x0
   \   000098   12....       LCALL   ??HalUARTWrite?relay
    226              Delay_ms(1000);
   \   00009B                ; Setup parameters for call to function Delay_ms
   \   00009B   7AE8         MOV     R2,#-0x18
   \   00009D   7B03         MOV     R3,#0x3
   \   00009F   12....       LCALL   ??Delay_ms?relay
    227              HalUARTWrite(UART0, SendBuf, strlen(SendBuf));
                                         ^
Warning[Pe167]: argument of type "char *" is incompatible with parameter of
          type "unsigned char *"
   \   0000A2                ; Setup parameters for call to function HalUARTWrite
   \   0000A2                ; Setup parameters for call to function strlen
   \   0000A2   7432         MOV     A,#0x32
   \   0000A4   12....       LCALL   ?XSTACK_DISP0_8
   \   0000A7   AA82         MOV     R2,DPL
   \   0000A9   AB83         MOV     R3,DPH
   \   0000AB   12....       LCALL   ??strlen?relay
   \   0000AE   EA           MOV     A,R2
   \   0000AF   FC           MOV     R4,A
   \   0000B0   EB           MOV     A,R3
   \   0000B1   FD           MOV     R5,A
   \   0000B2   7432         MOV     A,#0x32
   \   0000B4   12....       LCALL   ?XSTACK_DISP0_8
   \   0000B7   AA82         MOV     R2,DPL
   \   0000B9   AB83         MOV     R3,DPH
   \   0000BB   12....       LCALL   ??Subroutine11_0 & 0xFFFF
    228              
    229              HalLcdWriteString( Buf, HAL_LCD_LINE_3 );
   \                     ??CrossCallReturnLabel_15:
   \   0000BE   85..82       MOV     DPL,?XSP + 0
   \   0000C1   85..83       MOV     DPH,?XSP + 1
   \   0000C4   AA82         MOV     R2,DPL
   \   0000C6   AB83         MOV     R3,DPH
   \   0000C8   12....       LCALL   ??HalLcdWriteString?relay
    230              HalLcdWriteString( SendBuf, HAL_LCD_LINE_4 );
   \   0000CB                ; Setup parameters for call to function HalLcdWriteString
   \   0000CB   7904         MOV     R1,#0x4
   \   0000CD   7432         MOV     A,#0x32
   \   0000CF   12....       LCALL   ?XSTACK_DISP0_8
   \   0000D2   AA82         MOV     R2,DPL
   \   0000D4   AB83         MOV     R3,DPH
   \   0000D6   12....       LCALL   ??HalLcdWriteString?relay
    231          }
   \   0000D9   7464         MOV     A,#0x64
   \   0000DB   02....       LJMP    ?Subroutine0 & 0xFFFF

   \                                 In  segment BANKED_CODE, align 1, keep-with-next
   \                     ?Subroutine0:
   \   000000   12....       LCALL   ?DEALLOC_XSTACK8
   \   000003                REQUIRE ??Subroutine12_0
   \   000003                ; // Fall through to label ??Subroutine12_0
    232          

   \                                 In  segment BANKED_CODE, align 1, keep-with-next
    233          void SampleApp_Init( uint8 task_id )
   \                     SampleApp_Init:
    234          { 
   \   000000   74F5         MOV     A,#-0xb
   \   000002   12....       LCALL   ?BANKED_ENTER_XDATA
   \   000005                ; Saved register size: 11
   \   000005                ; Auto size: 0
   \   000005   E9           MOV     A,R1
   \   000006   FE           MOV     R6,A
    235            SampleApp_TaskID = task_id;
   \   000007   90....       MOV     DPTR,#SampleApp_TaskID
   \   00000A   F0           MOVX    @DPTR,A
    236            SampleApp_NwkState = DEV_INIT;
   \   00000B   90....       MOV     DPTR,#SampleApp_NwkState
   \   00000E   7401         MOV     A,#0x1
   \   000010   F0           MOVX    @DPTR,A
    237            SampleApp_TransID = 0;
   \   000011   90....       MOV     DPTR,#SampleApp_TransID
   \   000014   E4           CLR     A
   \   000015   F0           MOVX    @DPTR,A
    238            
    239            MT_UartInit();                  //串口初始化
   \   000016                ; Setup parameters for call to function MT_UartInit
   \   000016   12....       LCALL   ??MT_UartInit?relay
    240            MT_UartRegisterTaskID(task_id); //注册串口任务
   \   000019                ; Setup parameters for call to function MT_UartRegisterTaskID
   \   000019   EE           MOV     A,R6
   \   00001A   F9           MOV     R1,A
   \   00001B   12....       LCALL   ??MT_UartRegisterTaskID?relay
    241            P0SEL &= 0x7f;                  //P0_7配置成通用io
   \   00001E   53F37F       ANL     0xf3,#0x7f
    242            
    243            // Device hardware initialization can be added here or in main() (Zmain.c).
    244            // If the hardware is application specific - add it here.
    245            // If the hardware is other parts of the device add it in main().
    246          
    247           #if defined ( BUILD_ALL_DEVICES )
    248            // The "Demo" target is setup to have BUILD_ALL_DEVICES and HOLD_AUTO_START
    249            // We are looking at a jumper (defined in SampleAppHw.c) to be jumpered
    250            // together - if they are - we will start up a coordinator. Otherwise,
    251            // the device will start as a router.
    252            if ( readCoordinatorJumper() )
    253              zgDeviceLogicalType = ZG_DEVICETYPE_COORDINATOR;
    254            else
    255              zgDeviceLogicalType = ZG_DEVICETYPE_ROUTER;
    256          #endif // BUILD_ALL_DEVICES
    257          
    258          #if defined ( HOLD_AUTO_START )
    259            // HOLD_AUTO_START is a compile option that will surpress ZDApp
    260            //  from starting the device and wait for the application to
    261            //  start the device.
    262            ZDOInitDevice(0);
    263          #endif
    264          
    265            // Setup for the periodic message's destination address
    266            // Broadcast to everyone
    267            SampleApp_Periodic_DstAddr.addrMode = (afAddrMode_t)AddrBroadcast;
   \   000021   90....       MOV     DPTR,#SampleApp_Periodic_DstAddr + 8
   \   000024   740F         MOV     A,#0xf
   \   000026   F0           MOVX    @DPTR,A
    268            SampleApp_Periodic_DstAddr.endPoint = SAMPLEAPP_ENDPOINT;
   \   000027   A3           INC     DPTR
   \   000028   7414         MOV     A,#0x14
   \   00002A   F0           MOVX    @DPTR,A
    269            SampleApp_Periodic_DstAddr.addr.shortAddr = 0xFFFF;
   \   00002B   90....       MOV     DPTR,#SampleApp_Periodic_DstAddr
   \   00002E   74FF         MOV     A,#-0x1
   \   000030   F0           MOVX    @DPTR,A
   \   000031   A3           INC     DPTR
   \   000032   F0           MOVX    @DPTR,A
    270          
    271            // Setup for the flash command's destination address - Group 1
    272            SampleApp_Flash_DstAddr.addrMode = (afAddrMode_t)afAddrGroup;
   \   000033   90....       MOV     DPTR,#SampleApp_Flash_DstAddr + 8
   \   000036   7401         MOV     A,#0x1
   \   000038   F0           MOVX    @DPTR,A
    273            SampleApp_Flash_DstAddr.endPoint = SAMPLEAPP_ENDPOINT;
   \   000039   A3           INC     DPTR
   \   00003A   7414         MOV     A,#0x14
   \   00003C   F0           MOVX    @DPTR,A
    274            SampleApp_Flash_DstAddr.addr.shortAddr = SAMPLEAPP_FLASH_GROUP;
   \   00003D   90....       MOV     DPTR,#SampleApp_Flash_DstAddr
   \   000040   7401         MOV     A,#0x1
   \   000042   F0           MOVX    @DPTR,A
   \   000043   A3           INC     DPTR
   \   000044   E4           CLR     A
   \   000045   F0           MOVX    @DPTR,A
    275            
    276            SampleApp_P2P_DstAddr.addrMode = (afAddrMode_t)Addr16Bit; //点播 
   \   000046   90....       MOV     DPTR,#SampleApp_P2P_DstAddr + 8
   \   000049   7402         MOV     A,#0x2
   \   00004B   F0           MOVX    @DPTR,A
    277            SampleApp_P2P_DstAddr.endPoint = SAMPLEAPP_ENDPOINT; 
   \   00004C   A3           INC     DPTR
   \   00004D   7414         MOV     A,#0x14
   \   00004F   F0           MOVX    @DPTR,A
    278            SampleApp_P2P_DstAddr.addr.shortAddr = 0x0000;            //发给协调器
   \   000050   90....       MOV     DPTR,#SampleApp_P2P_DstAddr
   \   000053   E4           CLR     A
   \   000054   F0           MOVX    @DPTR,A
   \   000055   A3           INC     DPTR
   \   000056   F0           MOVX    @DPTR,A
    279          
    280            // Fill out the endpoint description.
    281            SampleApp_epDesc.endPoint = SAMPLEAPP_ENDPOINT;
   \   000057   90....       MOV     DPTR,#SampleApp_epDesc
   \   00005A   7414         MOV     A,#0x14
   \   00005C   F0           MOVX    @DPTR,A
    282            SampleApp_epDesc.task_id = &SampleApp_TaskID;
   \   00005D   A3           INC     DPTR
   \   00005E   74..         MOV     A,#SampleApp_TaskID & 0xff
   \   000060   F0           MOVX    @DPTR,A
   \   000061   A3           INC     DPTR
   \   000062   74..         MOV     A,#(SampleApp_TaskID >> 8) & 0xff
   \   000064   F0           MOVX    @DPTR,A
    283            SampleApp_epDesc.simpleDesc
    284                      = (SimpleDescriptionFormat_t *)&SampleApp_SimpleDesc;
   \   000065   A3           INC     DPTR
   \   000066   74..         MOV     A,#SampleApp_SimpleDesc & 0xff
   \   000068   F0           MOVX    @DPTR,A
   \   000069   A3           INC     DPTR
   \   00006A   74..         MOV     A,#(SampleApp_SimpleDesc >> 8) & 0xff
   \   00006C   F0           MOVX    @DPTR,A
    285            SampleApp_epDesc.latencyReq = noLatencyReqs;
   \   00006D   A3           INC     DPTR
   \   00006E   E4           CLR     A
   \   00006F   F0           MOVX    @DPTR,A
    286          
    287            // Register the endpoint description with the AF
    288            afRegister( &SampleApp_epDesc );
   \   000070                ; Setup parameters for call to function afRegister
   \   000070   7A..         MOV     R2,#SampleApp_epDesc & 0xff
   \   000072   7B..         MOV     R3,#(SampleApp_epDesc >> 8) & 0xff
   \   000074   12....       LCALL   ??afRegister?relay
    289          
    290            // Register for all key events - This app will handle all key events
    291            RegisterForKeys( SampleApp_TaskID );
   \   000077                ; Setup parameters for call to function RegisterForKeys
   \   000077   90....       MOV     DPTR,#SampleApp_TaskID
   \   00007A   E0           MOVX    A,@DPTR
   \   00007B   F9           MOV     R1,A
   \   00007C   12....       LCALL   ??RegisterForKeys?relay
    292          
    293            // By default, all devices start out in Group 1
    294            SampleApp_Group.ID = 0x0001;
   \   00007F   90....       MOV     DPTR,#SampleApp_Group
   \   000082   7401         MOV     A,#0x1
   \   000084   F0           MOVX    @DPTR,A
   \   000085   A3           INC     DPTR
   \   000086   E4           CLR     A
   \   000087   F0           MOVX    @DPTR,A
    295            osal_memcpy( SampleApp_Group.name, "Group 1", 7 );
   \   000088                ; Setup parameters for call to function osal_memcpy
   \   000088   75....       MOV     ?V0 + 0,#`?<Constant "Group 1">` & 0xff
   \   00008B   75....       MOV     ?V0 + 1,#(`?<Constant "Group 1">` >> 8) & 0xff
   \   00008E   F5..         MOV     ?V0 + 2,A
   \   000090   78..         MOV     R0,#?V0 + 0
   \   000092   12....       LCALL   ?PUSH_XSTACK_I_THREE
   \   000095   7C07         MOV     R4,#0x7
   \   000097   7D00         MOV     R5,#0x0
   \   000099   7A..         MOV     R2,#(SampleApp_Group + 2) & 0xff
   \   00009B   7B..         MOV     R3,#((SampleApp_Group + 2) >> 8) & 0xff
   \   00009D   12....       LCALL   ??Subroutine14_0 & 0xFFFF
   \                     ??CrossCallReturnLabel_24:
   \   0000A0   12....       LCALL   ?DEALLOC_XSTACK8
    296            aps_AddGroup( SAMPLEAPP_ENDPOINT, &SampleApp_Group );
   \   0000A3                ; Setup parameters for call to function aps_AddGroup
   \   0000A3   7A..         MOV     R2,#SampleApp_Group & 0xff
   \   0000A5   7B..         MOV     R3,#(SampleApp_Group >> 8) & 0xff
   \   0000A7   7914         MOV     R1,#0x14
   \   0000A9   12....       LCALL   ??aps_AddGroup?relay
    297          
    298          #if defined ( LCD_SUPPORTED )
    299            HalLcdWriteString( "SampleApp", HAL_LCD_LINE_1 );
   \   0000AC                ; Setup parameters for call to function HalLcdWriteString
   \   0000AC   7901         MOV     R1,#0x1
   \   0000AE   7A..         MOV     R2,#`?<Constant "SampleApp">` & 0xff
   \   0000B0   7B..         MOV     R3,#(`?<Constant "SampleApp">` >> 8) & 0xff
   \   0000B2   12....       LCALL   ??HalLcdWriteString?relay
    300          #endif
    301            
    302          //       Init_ESP8266();
    303          #if defined(ZDO_COORDINATOR)       
    304                  Init_Wifi();
   \   0000B5                ; Setup parameters for call to function Init_Wifi
   \   0000B5   12....       LCALL   ??Init_Wifi?relay
    305          #else        
    306                  osal_start_timerEx( SerialApp_TaskID,
    307                                      SERIALAPP_SEND_PERIODIC_EVT,
    308                                      SERIALAPP_SEND_PERIODIC_TIMEOUT ); 
    309          #endif
    310          }
   \   0000B8   7F03         MOV     R7,#0x3
   \   0000BA   02....       LJMP    ?BANKED_LEAVE_XDATA
   \   0000BD                REQUIRE P0SEL

   \                                 In  segment BANKED_CODE, align 1, keep-with-next
   \                     ??Subroutine14_0:
   \   000000   12....       LCALL   ??osal_memcpy?relay
   \   000003   7403         MOV     A,#0x3
   \   000005   22           RET
    311          
    312          /*********************************************************************
    313           * @fn      SampleApp_ProcessEvent
    314           *
    315           * @brief   Generic Application Task event processor.  This function
    316           *          is called to process all events for the task.  Events
    317           *          include timers, messages and any other user defined events.
    318           *
    319           * @param   task_id  - The OSAL assigned task ID.
    320           * @param   events - events to process.  This is a bit map and can
    321           *                   contain more than one event.
    322           *
    323           * @return  none
    324           */

   \                                 In  segment BANKED_CODE, align 1, keep-with-next
    325          uint16 SampleApp_ProcessEvent( uint8 task_id, uint16 events )
   \                     SampleApp_ProcessEvent:
    326          {
   \   000000   74F4         MOV     A,#-0xc
   \   000002   12....       LCALL   ?BANKED_ENTER_XDATA
   \   000005                ; Saved register size: 12
   \   000005                ; Auto size: 0
   \   000005   EA           MOV     A,R2
   \   000006   FE           MOV     R6,A
   \   000007   EB           MOV     A,R3
   \   000008   FF           MOV     R7,A
    327            afIncomingMSGPacket_t *MSGpkt;
    328            (void)task_id;  // Intentionally unreferenced parameter
    329          
    330            if ( events & SYS_EVENT_MSG )
   \   000009   5480         ANL     A,#0x80
   \   00000B   6074         JZ      ??SampleApp_ProcessEvent_0
    331            {
    332              MSGpkt = (afIncomingMSGPacket_t *)osal_msg_receive( SampleApp_TaskID );
   \   00000D                ; Setup parameters for call to function osal_msg_receive
   \   00000D   8026         SJMP    ??SampleApp_ProcessEvent_1
    333              while ( MSGpkt )
    334              {
    335                switch ( MSGpkt->hdr.event )
    336                {
    337                  // Received when a key is pressed
    338                  case KEY_CHANGE:
    339                    SampleApp_HandleKeys( ((keyChange_t *)MSGpkt)->state, ((keyChange_t *)MSGpkt)->keys );
    340                    break;
    341          
    342                  // Received when a messages is received (OTA) for this endpoint
    343                  case AF_INCOMING_MSG_CMD:
    344                    SampleApp_MessageMSGCB( MSGpkt );
    345                    break;
    346          
    347                  // Received whenever the device changes state in the network
    348                  case ZDO_STATE_CHANGE:
    349                    SampleApp_NwkState = (devStates_t)(MSGpkt->hdr.status);
   \                     ??SampleApp_ProcessEvent_2:
   \   00000F   A3           INC     DPTR
   \   000010   E0           MOVX    A,@DPTR
   \   000011   90....       MOV     DPTR,#SampleApp_NwkState
   \   000014   F0           MOVX    @DPTR,A
    350                    if ( //(SampleApp_NwkState == DEV_ZB_COORD) ||
    351                           (SampleApp_NwkState == DEV_ROUTER)
    352                        || (SampleApp_NwkState == DEV_END_DEVICE) )
   \   000015   6407         XRL     A,#0x7
   \   000017   6005         JZ      ??SampleApp_ProcessEvent_3
   \   000019   E0           MOVX    A,@DPTR
   \   00001A   6406         XRL     A,#0x6
   \   00001C   7010         JNZ     ??SampleApp_ProcessEvent_4
    353                    {
    354                      // Start sending the periodic message in a regular interval.
    355                      osal_start_timerEx( SampleApp_TaskID,
    356                                        SAMPLEAPP_SEND_PERIODIC_MSG_EVT,
    357                                        SAMPLEAPP_SEND_PERIODIC_MSG_TIMEOUT );
   \                     ??SampleApp_ProcessEvent_3:
   \   00001E                ; Setup parameters for call to function osal_start_timerEx
   \   00001E   7CB8         MOV     R4,#-0x48
   \   000020   7D0B         MOV     R5,#0xb
   \   000022   7A01         MOV     R2,#0x1
   \   000024   7B00         MOV     R3,#0x0
   \   000026   90....       MOV     DPTR,#SampleApp_TaskID
   \   000029   E0           MOVX    A,@DPTR
   \   00002A   F9           MOV     R1,A
   \   00002B   12....       LCALL   ??osal_start_timerEx?relay
    358                    }
    359                    else
    360                    {
    361                      // Device is no longer in the network
    362                    }
    363                    break;
    364          
    365                  default:
    366                    break;
    367                }
    368          
    369                // Release the memory
    370                osal_msg_deallocate( (uint8 *)MSGpkt );
   \                     ??SampleApp_ProcessEvent_4:
   \   00002E                ; Setup parameters for call to function osal_msg_deallocate
   \   00002E   AA..         MOV     R2,?V0 + 0
   \   000030   AB..         MOV     R3,?V0 + 1
   \   000032   12....       LCALL   ??osal_msg_deallocate?relay
    371          
    372                // Next - if one is available
    373                MSGpkt = (afIncomingMSGPacket_t *)osal_msg_receive( SampleApp_TaskID );
   \   000035                ; Setup parameters for call to function osal_msg_receive
   \                     ??SampleApp_ProcessEvent_1:
   \   000035   90....       MOV     DPTR,#SampleApp_TaskID
   \   000038   E0           MOVX    A,@DPTR
   \   000039   F9           MOV     R1,A
   \   00003A   12....       LCALL   ??osal_msg_receive?relay
   \   00003D   8A..         MOV     ?V0 + 0,R2
   \   00003F   8B..         MOV     ?V0 + 1,R3
   \   000041   E5..         MOV     A,?V0 + 0
   \   000043   45..         ORL     A,?V0 + 1
   \   000045   6032         JZ      ??SampleApp_ProcessEvent_5
   \   000047   85..82       MOV     DPL,?V0 + 0
   \   00004A   85..83       MOV     DPH,?V0 + 1
   \   00004D   E0           MOVX    A,@DPTR
   \   00004E   24E6         ADD     A,#-0x1a
   \   000050   601E         JZ      ??SampleApp_ProcessEvent_6
   \   000052   245A         ADD     A,#0x5a
   \   000054   6006         JZ      ??SampleApp_ProcessEvent_7
   \   000056   24EF         ADD     A,#-0x11
   \   000058   60B5         JZ      ??SampleApp_ProcessEvent_2
   \   00005A   80D2         SJMP    ??SampleApp_ProcessEvent_4
   \                     ??SampleApp_ProcessEvent_7:
   \   00005C                ; Setup parameters for call to function SampleApp_HandleKeys
   \   00005C   A3           INC     DPTR
   \   00005D   A3           INC     DPTR
   \   00005E   A3           INC     DPTR
   \   00005F   E0           MOVX    A,@DPTR
   \   000060   FA           MOV     R2,A
   \   000061   85..82       MOV     DPL,?V0 + 0
   \   000064   85..83       MOV     DPH,?V0 + 1
   \   000067   A3           INC     DPTR
   \   000068   A3           INC     DPTR
   \   000069   E0           MOVX    A,@DPTR
   \   00006A   F9           MOV     R1,A
   \   00006B   12....       LCALL   ??SampleApp_HandleKeys?relay
   \   00006E   80BE         SJMP    ??SampleApp_ProcessEvent_4
   \                     ??SampleApp_ProcessEvent_6:
   \   000070                ; Setup parameters for call to function SampleApp_MessageMSGCB
   \   000070   AA..         MOV     R2,?V0 + 0
   \   000072   AB..         MOV     R3,?V0 + 1
   \   000074   12....       LCALL   ??SampleApp_MessageMSGCB?relay
   \   000077   80B5         SJMP    ??SampleApp_ProcessEvent_4
    374              }
    375          
    376              // return unprocessed events
    377              return (events ^ SYS_EVENT_MSG);
   \                     ??SampleApp_ProcessEvent_5:
   \   000079   EE           MOV     A,R6
   \   00007A   FA           MOV     R2,A
   \   00007B   EF           MOV     A,R7
   \   00007C   6480         XRL     A,#0x80
   \                     ??SampleApp_ProcessEvent_8:
   \   00007E   FB           MOV     R3,A
   \   00007F   802A         SJMP    ??SampleApp_ProcessEvent_9
    378            }
    379          
    380            // Send a message out - This event is generated by a timer
    381            //  (setup in SampleApp_Init()).
    382            if ( events & SAMPLEAPP_SEND_PERIODIC_MSG_EVT )
   \                     ??SampleApp_ProcessEvent_0:
   \   000081   EE           MOV     A,R6
   \   000082   A2E0         MOV     C,0xE0 /* A   */.0
   \   000084   5021         JNC     ??SampleApp_ProcessEvent_10
    383            {
    384              // Send the periodic message
    385              //SampleApp_SendPeriodicMessage();
    386              SampleApp_Send_P2P_Message();
   \   000086                ; Setup parameters for call to function SampleApp_Send_P2P_Message
   \   000086   12....       LCALL   ??SampleApp_Send_P2P_Message?relay
    387          
    388              // Setup to send message again in normal period (+ a little jitter)
    389              osal_start_timerEx( SampleApp_TaskID, SAMPLEAPP_SEND_PERIODIC_MSG_EVT,
    390                  (SAMPLEAPP_SEND_PERIODIC_MSG_TIMEOUT + (osal_rand() & 0x00FF)) );
   \   000089                ; Setup parameters for call to function osal_rand
   \   000089   12....       LCALL   ??osal_rand?relay
   \   00008C                ; Setup parameters for call to function osal_start_timerEx
   \   00008C   EA           MOV     A,R2
   \   00008D   24B8         ADD     A,#-0x48
   \   00008F   FC           MOV     R4,A
   \   000090   E4           CLR     A
   \   000091   340B         ADDC    A,#0xb
   \   000093   FD           MOV     R5,A
   \   000094   7A01         MOV     R2,#0x1
   \   000096   7B00         MOV     R3,#0x0
   \   000098   90....       MOV     DPTR,#SampleApp_TaskID
   \   00009B   E0           MOVX    A,@DPTR
   \   00009C   F9           MOV     R1,A
   \   00009D   12....       LCALL   ??osal_start_timerEx?relay
    391          
    392              // return unprocessed events
    393              return (events ^ SAMPLEAPP_SEND_PERIODIC_MSG_EVT);
   \   0000A0   EE           MOV     A,R6
   \   0000A1   6401         XRL     A,#0x1
   \   0000A3   FA           MOV     R2,A
   \   0000A4   EF           MOV     A,R7
   \   0000A5   80D7         SJMP    ??SampleApp_ProcessEvent_8
    394            }
    395          
    396            // Discard unknown events
    397            return 0;
   \                     ??SampleApp_ProcessEvent_10:
   \   0000A7   7A00         MOV     R2,#0x0
   \   0000A9   7B00         MOV     R3,#0x0
   \                     ??SampleApp_ProcessEvent_9:
   \   0000AB                REQUIRE ?Subroutine1
   \   0000AB                ; // Fall through to label ?Subroutine1
    398          }

   \                                 In  segment BANKED_CODE, align 1, keep-with-next
   \                     ?Subroutine1:
   \   000000   7F04         MOV     R7,#0x4
   \   000002   02....       LJMP    ?BANKED_LEAVE_XDATA
    399          
    400          /*********************************************************************
    401           * Event Generation Functions
    402           */
    403          /*********************************************************************
    404           * @fn      SampleApp_HandleKeys
    405           *
    406           * @brief   Handles all key events for this device.
    407           *
    408           * @param   shift - true if in shift/alt.
    409           * @param   keys - bit field for key events. Valid entries:
    410           *                 HAL_KEY_SW_2
    411           *                 HAL_KEY_SW_1
    412           *
    413           * @return  none
    414           */

   \                                 In  segment BANKED_CODE, align 1, keep-with-next
    415          void SampleApp_HandleKeys( uint8 shift, uint8 keys )
   \                     SampleApp_HandleKeys:
    416          {
   \   000000   74F6         MOV     A,#-0xa
   \   000002   12....       LCALL   ?BANKED_ENTER_XDATA
   \   000005                ; Saved register size: 10
   \   000005                ; Auto size: 0
   \   000005   EA           MOV     A,R2
   \   000006   FE           MOV     R6,A
    417            (void)shift;  // Intentionally unreferenced parameter
    418            
    419            if ( keys & HAL_KEY_SW_1 )
   \   000007   A2E0         MOV     C,0xE0 /* A   */.0
   \   000009   5007         JNC     ??SampleApp_HandleKeys_0
    420            {
    421              /* This key sends the Flash Command is sent to Group 1.
    422               * This device will not receive the Flash Command from this
    423               * device (even if it belongs to group 1).
    424               */
    425              SampleApp_SendFlashMessage( SAMPLEAPP_FLASH_DURATION );
   \   00000B                ; Setup parameters for call to function SampleApp_SendFlashMessage
   \   00000B   7AE8         MOV     R2,#-0x18
   \   00000D   7B03         MOV     R3,#0x3
   \   00000F   12....       LCALL   ??SampleApp_SendFlashMessage?relay
    426            }
    427          
    428            if ( keys & HAL_KEY_SW_2 )
   \                     ??SampleApp_HandleKeys_0:
   \   000012   EE           MOV     A,R6
   \   000013   A2E1         MOV     C,0xE0 /* A   */.1
   \   000015   5024         JNC     ??SampleApp_HandleKeys_1
    429            {
    430              /* The Flashr Command is sent to Group 1.
    431               * This key toggles this device in and out of group 1.
    432               * If this device doesn't belong to group 1, this application
    433               * will not receive the Flash command sent to group 1.
    434               */
    435              aps_Group_t *grp;
    436              grp = aps_FindGroup( SAMPLEAPP_ENDPOINT, SAMPLEAPP_FLASH_GROUP );
    437              if ( grp )
   \   000017                ; Setup parameters for call to function aps_FindGroup
   \   000017   7A01         MOV     R2,#0x1
   \   000019   7B00         MOV     R3,#0x0
   \   00001B   7914         MOV     R1,#0x14
   \   00001D   12....       LCALL   ??aps_FindGroup?relay
   \   000020   8B..         MOV     ?V0 + 1,R3
   \   000022   EA           MOV     A,R2
   \   000023   45..         ORL     A,?V0 + 1
   \   000025   600B         JZ      ??SampleApp_HandleKeys_2
    438              {
    439                // Remove from the group
    440                aps_RemoveGroup( SAMPLEAPP_ENDPOINT, SAMPLEAPP_FLASH_GROUP );
   \   000027                ; Setup parameters for call to function aps_RemoveGroup
   \   000027   7A01         MOV     R2,#0x1
   \   000029   7B00         MOV     R3,#0x0
   \   00002B   7914         MOV     R1,#0x14
   \   00002D   12....       LCALL   ??aps_RemoveGroup?relay
   \   000030   8009         SJMP    ??SampleApp_HandleKeys_1
    441              }
    442              else
    443              {
    444                // Add to the flash group
    445                aps_AddGroup( SAMPLEAPP_ENDPOINT, &SampleApp_Group );
   \                     ??SampleApp_HandleKeys_2:
   \   000032                ; Setup parameters for call to function aps_AddGroup
   \   000032   7A..         MOV     R2,#SampleApp_Group & 0xff
   \   000034   7B..         MOV     R3,#(SampleApp_Group >> 8) & 0xff
   \   000036   7914         MOV     R1,#0x14
   \   000038   12....       LCALL   ??aps_AddGroup?relay
    446              }
    447            }
    448          }
   \                     ??SampleApp_HandleKeys_1:
   \   00003B   02....       LJMP    ??Subroutine12_0 & 0xFFFF
    449          
    450          /*********************************************************************
    451           * LOCAL FUNCTIONS
    452           */
    453          
    454          /*********************************************************************
    455           * @fn      SampleApp_MessageMSGCB
    456           *
    457           * @brief   Data message processor callback.  This function processes
    458           *          any incoming data - probably from other devices.  So, based
    459           *          on cluster ID, perform the intended action.
    460           *
    461           * @param   none
    462           *
    463           * @return  none
    464           */

   \                                 In  segment BANKED_CODE, align 1, keep-with-next
   \                     ?Subroutine9:
   \   000000   8E82         MOV     DPL,R6
   \   000002   8F83         MOV     DPH,R7
   \   000004                REQUIRE ??Subroutine10_0
   \   000004                ; // Fall through to label ??Subroutine10_0

   \                                 In  segment BANKED_CODE, align 1, keep-with-next
    465          void SampleApp_MessageMSGCB( afIncomingMSGPacket_t *pkt )
   \                     SampleApp_MessageMSGCB:
    466          {
   \   000000   74F4         MOV     A,#-0xc
   \   000002   12....       LCALL   ?BANKED_ENTER_XDATA
   \   000005                ; Saved register size: 12
   \   000005                ; Auto size: 0
   \   000005   8A..         MOV     ?V0 + 0,R2
   \   000007   8B..         MOV     ?V0 + 1,R3
    467            uint16 flashTime;
    468          
    469            switch ( pkt->clusterId )
   \   000009   EA           MOV     A,R2
   \   00000A   2421         ADD     A,#0x21
   \   00000C   FE           MOV     R6,A
   \   00000D   EB           MOV     A,R3
   \   00000E   3400         ADDC    A,#0x0
   \   000010   FF           MOV     R7,A
   \   000011   8A82         MOV     DPL,R2
   \   000013   8B83         MOV     DPH,R3
   \   000015   A3           INC     DPTR
   \   000016   A3           INC     DPTR
   \   000017   A3           INC     DPTR
   \   000018   A3           INC     DPTR
   \   000019   E0           MOVX    A,@DPTR
   \   00001A   F5..         MOV     ?V0 + 2,A
   \   00001C   A3           INC     DPTR
   \   00001D   E0           MOVX    A,@DPTR
   \   00001E   F5..         MOV     ?V0 + 3,A
   \   000020   78..         MOV     R0,#?V0 + 2
   \   000022   12....       LCALL   ?US_SWITCH_DENSE
   \                     `?<Jumptable for SampleApp_MessageMSGCB>_0`:
   \   000025   0200         DW        2
   \   000027   02           DB        2
   \   000028   ....         DW        ??SampleApp_MessageMSGCB_0
   \   00002A   ....         DW        ??SampleApp_MessageMSGCB_1
   \   00002C   ....         DW        ??SampleApp_MessageMSGCB_0
   \   00002E   ....         DW        ??SampleApp_MessageMSGCB_2
    470            {
    471              case SAMPLEAPP_P2P_CLUSTERID:
    472                HalUARTWrite(0, "T&H:", 4);       //提示接收到数据
   \                     ??SampleApp_MessageMSGCB_2:
   \   000030                ; Setup parameters for call to function HalUARTWrite
   \   000030   7C04         MOV     R4,#0x4
   \   000032   7D00         MOV     R5,#0x0
   \   000034   7A..         MOV     R2,#`?<Constant "T&H:">` & 0xff
   \   000036   7B..         MOV     R3,#(`?<Constant "T&H:">` >> 8) & 0xff
   \   000038   7900         MOV     R1,#0x0
   \   00003A   12....       LCALL   ??HalUARTWrite?relay
    473                HalUARTWrite(0, pkt->cmd.Data, pkt->cmd.DataLength); //输出接收到的数据
   \   00003D                ; Setup parameters for call to function HalUARTWrite
   \   00003D   E5..         MOV     A,?V0 + 0
   \   00003F   241F         ADD     A,#0x1f
   \   000041   F582         MOV     DPL,A
   \   000043   E5..         MOV     A,?V0 + 1
   \   000045   3400         ADDC    A,#0x0
   \   000047   F583         MOV     DPH,A
   \   000049   E0           MOVX    A,@DPTR
   \   00004A   FC           MOV     R4,A
   \   00004B   A3           INC     DPTR
   \   00004C   E0           MOVX    A,@DPTR
   \   00004D   FD           MOV     R5,A
   \   00004E   12....       LCALL   ?Subroutine9 & 0xFFFF
   \                     ??CrossCallReturnLabel_10:
   \   000051   12....       LCALL   ?Subroutine2 & 0xFFFF
    474                HalUARTWrite(0, "\n", 1);         // 回车换行
    475                WifiSendData(pkt->cmd.Data);
                                    ^
Warning[Pe167]: argument of type "unsigned char *" is incompatible with
          parameter of type "char *"
   \                     ??CrossCallReturnLabel_0:
   \   000054                ; Setup parameters for call to function WifiSendData
   \   000054   12....       LCALL   ?Subroutine9 & 0xFFFF
   \                     ??CrossCallReturnLabel_11:
   \   000057   12....       LCALL   ??WifiSendData?relay
    476                break;    
   \   00005A   8035         SJMP    ??SampleApp_MessageMSGCB_0
    477              case SAMPLEAPP_PERIODIC_CLUSTERID:
    478                break;
    479          
    480              case SAMPLEAPP_FLASH_CLUSTERID:
    481                flashTime = BUILD_UINT16(pkt->cmd.Data[1], pkt->cmd.Data[2] );
    482                HalLedBlink( HAL_LED_4, 4, 50, (flashTime / 4) );
   \                     ??SampleApp_MessageMSGCB_1:
   \   00005C   8E82         MOV     DPL,R6
   \   00005E   8F83         MOV     DPH,R7
   \   000060   E0           MOVX    A,@DPTR
   \   000061   F8           MOV     R0,A
   \   000062   A3           INC     DPTR
   \   000063   E0           MOVX    A,@DPTR
   \   000064   F9           MOV     R1,A
   \   000065                ; Setup parameters for call to function HalLedBlink
   \   000065   8882         MOV     DPL,R0
   \   000067   8983         MOV     DPH,R1
   \   000069   A3           INC     DPTR
   \   00006A   E0           MOVX    A,@DPTR
   \   00006B   FA           MOV     R2,A
   \   00006C   8882         MOV     DPL,R0
   \   00006E   8983         MOV     DPH,R1
   \   000070   A3           INC     DPTR
   \   000071   A3           INC     DPTR
   \   000072   E0           MOVX    A,@DPTR
   \   000073   F9           MOV     R1,A
   \   000074   EA           MOV     A,R2
   \   000075   2400         ADD     A,#0x0
   \   000077   F5..         MOV     ?V0 + 0,A
   \   000079   E4           CLR     A
   \   00007A   39           ADDC    A,R1
   \   00007B   F5..         MOV     ?V0 + 1,A
   \   00007D   7402         MOV     A,#0x2
   \   00007F   78..         MOV     R0,#?V0 + 0
   \   000081   12....       LCALL   ?US_SHR
   \   000084   AC..         MOV     R4,?V0 + 0
   \   000086   AD..         MOV     R5,?V0 + 1
   \   000088   7B32         MOV     R3,#0x32
   \   00008A   7A04         MOV     R2,#0x4
   \   00008C   7908         MOV     R1,#0x8
   \   00008E   12....       LCALL   ??HalLedBlink?relay
    483                break;
    484            }
    485          }
   \                     ??SampleApp_MessageMSGCB_0:
   \   000091   02....       LJMP    ?Subroutine1 & 0xFFFF

   \                                 In  segment BANKED_CODE, align 1, keep-with-next
   \                     ?Subroutine2:
   \   000000   7900         MOV     R1,#0x0
   \   000002   12....       LCALL   ??HalUARTWrite?relay
   \   000005                ; Setup parameters for call to function HalUARTWrite
   \   000005                ; Setup parameters for call to function HalUARTWrite
   \   000005   7C01         MOV     R4,#0x1
   \   000007   7D00         MOV     R5,#0x0
   \   000009   7A..         MOV     R2,#`?<Constant "\\n">` & 0xff
   \   00000B   7B..         MOV     R3,#(`?<Constant "\\n">` >> 8) & 0xff
   \   00000D   7900         MOV     R1,#0x0
   \   00000F   12....       LCALL   ??HalUARTWrite?relay
   \   000012   22           RET
    486          
    487          /*********************************************************************
    488           * @fn      SampleApp_SendPeriodicMessage
    489           *
    490           * @brief   Send the periodic message.
    491           *
    492           * @param   none
    493           *
    494           * @return  none
    495           */

   \                                 In  segment BANKED_CODE, align 1, keep-with-next
    496          void SampleApp_SendPeriodicMessage( void )
   \                     SampleApp_SendPeriodicMessage:
    497          {
   \   000000   74F6         MOV     A,#-0xa
   \   000002   12....       LCALL   ?BANKED_ENTER_XDATA
   \   000005                ; Saved register size: 10
   \   000005                ; Auto size: 0
    498            if ( AF_DataRequest( &SampleApp_Periodic_DstAddr, &SampleApp_epDesc,
    499                                 SAMPLEAPP_PERIODIC_CLUSTERID,
    500                                 1,
    501                                 (uint8*)&SampleAppPeriodicCounter,
    502                                 &SampleApp_TransID,
    503                                 AF_DISCV_ROUTE,
    504                                 AF_DEFAULT_RADIUS ) == afStatus_SUCCESS )
   \   000005                ; Setup parameters for call to function AF_DataRequest
   \   000005   75..1E       MOV     ?V0 + 0,#0x1e
   \   000008   78..         MOV     R0,#?V0 + 0
   \   00000A   12....       LCALL   ?PUSH_XSTACK_I_ONE
   \   00000D   75....       MOV     ?V0 + 0,#SampleApp_TransID & 0xff
   \   000010   75....       MOV     ?V0 + 1,#(SampleApp_TransID >> 8) & 0xff
   \   000013   78..         MOV     R0,#?V0 + 0
   \   000015   12....       LCALL   ?PUSH_XSTACK_I_TWO
   \   000018   75....       MOV     ?V0 + 0,#SampleAppPeriodicCounter & 0xff
   \   00001B   75....       MOV     ?V0 + 1,#(SampleAppPeriodicCounter >> 8) & 0xff
   \   00001E   78..         MOV     R0,#?V0 + 0
   \   000020   12....       LCALL   ?PUSH_XSTACK_I_TWO
   \   000023   75..01       MOV     ?V0 + 0,#0x1
   \   000026   75..00       MOV     ?V0 + 1,#0x0
   \   000029   78..         MOV     R0,#?V0 + 0
   \   00002B   12....       LCALL   ?PUSH_XSTACK_I_TWO
   \   00002E   78..         MOV     R0,#?V0 + 0
   \   000030   12....       LCALL   ?PUSH_XSTACK_I_TWO
   \   000033   7920         MOV     R1,#0x20
   \   000035   7C..         MOV     R4,#SampleApp_epDesc & 0xff
   \   000037   7D..         MOV     R5,#(SampleApp_epDesc >> 8) & 0xff
   \   000039   7A..         MOV     R2,#SampleApp_Periodic_DstAddr & 0xff
   \   00003B   7B..         MOV     R3,#(SampleApp_Periodic_DstAddr >> 8) & 0xff
   \   00003D   12....       LCALL   ??Subroutine13_0 & 0xFFFF
   \                     ??CrossCallReturnLabel_19:
   \   000040   80..         SJMP    ?Subroutine0
    505            {
    506            }
    507            else
    508            {
    509              // Error occurred in request to send.
    510            }
    511          }

   \                                 In  segment BANKED_CODE, align 1, keep-with-next
   \                     ??Subroutine13_0:
   \   000000   12....       LCALL   ??AF_DataRequest?relay
   \   000003   7409         MOV     A,#0x9
   \   000005   22           RET
    512          
    513          /*********************************************************************
    514           * @fn      SampleApp_SendFlashMessage
    515           *
    516           * @brief   Send the flash message to group 1.
    517           *
    518           * @param   flashTime - in milliseconds
    519           *
    520           * @return  none
    521           */

   \                                 In  segment BANKED_CODE, align 1, keep-with-next
    522          void SampleApp_SendFlashMessage( uint16 flashTime )
   \                     SampleApp_SendFlashMessage:
    523          {
   \   000000   74F6         MOV     A,#-0xa
   \   000002   12....       LCALL   ?BANKED_ENTER_XDATA
   \   000005                ; Saved register size: 10
   \   000005                ; Auto size: 3
   \   000005   74FD         MOV     A,#-0x3
   \   000007   12....       LCALL   ?ALLOC_XSTACK8
    524            uint8 buffer[3];
    525            buffer[0] = (uint8)(SampleAppFlashCounter++);
   \   00000A   90....       MOV     DPTR,#SampleAppFlashCounter
   \   00000D   E0           MOVX    A,@DPTR
   \   00000E   85..82       MOV     DPL,?XSP + 0
   \   000011   85..83       MOV     DPH,?XSP + 1
   \   000014   F0           MOVX    @DPTR,A
   \   000015   90....       MOV     DPTR,#SampleAppFlashCounter
   \   000018   E0           MOVX    A,@DPTR
   \   000019   04           INC     A
   \   00001A   F0           MOVX    @DPTR,A
    526            buffer[1] = LO_UINT16( flashTime );
   \   00001B   7401         MOV     A,#0x1
   \   00001D   12....       LCALL   ?XSTACK_DISP0_8
   \   000020   EA           MOV     A,R2
   \   000021   F0           MOVX    @DPTR,A
    527            buffer[2] = HI_UINT16( flashTime );
   \   000022   7402         MOV     A,#0x2
   \   000024   12....       LCALL   ?XSTACK_DISP0_8
   \   000027   EB           MOV     A,R3
   \   000028   F0           MOVX    @DPTR,A
    528          
    529            if ( AF_DataRequest( &SampleApp_Flash_DstAddr, &SampleApp_epDesc,
    530                                 SAMPLEAPP_FLASH_CLUSTERID,
    531                                 3,
    532                                 buffer,
    533                                 &SampleApp_TransID,
    534                                 AF_DISCV_ROUTE,
    535                                 AF_DEFAULT_RADIUS ) == afStatus_SUCCESS )
   \   000029                ; Setup parameters for call to function AF_DataRequest
   \   000029   75..1E       MOV     ?V0 + 0,#0x1e
   \   00002C   78..         MOV     R0,#?V0 + 0
   \   00002E   12....       LCALL   ?PUSH_XSTACK_I_ONE
   \   000031   75....       MOV     ?V0 + 0,#SampleApp_TransID & 0xff
   \   000034   75....       MOV     ?V0 + 1,#(SampleApp_TransID >> 8) & 0xff
   \   000037   78..         MOV     R0,#?V0 + 0
   \   000039   12....       LCALL   ?PUSH_XSTACK_I_TWO
   \   00003C   7403         MOV     A,#0x3
   \   00003E   12....       LCALL   ?XSTACK_DISP0_8
   \   000041   8582..       MOV     ?V0 + 0,DPL
   \   000044   8583..       MOV     ?V0 + 1,DPH
   \   000047   78..         MOV     R0,#?V0 + 0
   \   000049   12....       LCALL   ?PUSH_XSTACK_I_TWO
   \   00004C   75..03       MOV     ?V0 + 0,#0x3
   \   00004F   75..00       MOV     ?V0 + 1,#0x0
   \   000052   78..         MOV     R0,#?V0 + 0
   \   000054   12....       LCALL   ?PUSH_XSTACK_I_TWO
   \   000057   75..02       MOV     ?V0 + 0,#0x2
   \   00005A   78..         MOV     R0,#?V0 + 0
   \   00005C   12....       LCALL   ?PUSH_XSTACK_I_TWO
   \   00005F   7920         MOV     R1,#0x20
   \   000061   7C..         MOV     R4,#SampleApp_epDesc & 0xff
   \   000063   7D..         MOV     R5,#(SampleApp_epDesc >> 8) & 0xff
   \   000065   7A..         MOV     R2,#SampleApp_Flash_DstAddr & 0xff
   \   000067   7B..         MOV     R3,#(SampleApp_Flash_DstAddr >> 8) & 0xff
   \   000069   12....       LCALL   ??Subroutine13_0 & 0xFFFF
   \                     ??CrossCallReturnLabel_20:
   \   00006C   12....       LCALL   ?DEALLOC_XSTACK8
    536            {
    537            }
    538            else
    539            {
    540              // Error occurred in request to send.
    541            }
    542          }
   \   00006F   7403         MOV     A,#0x3
   \   000071                REQUIRE ?Subroutine0
   \   000071                ; // Fall through to label ?Subroutine0
    543          
    544          /*********************************************************************
    545           * @fn      SampleApp_Send_P2P_Message
    546           *
    547           * @brief   point to point.
    548           *
    549           * @param   none
    550           *
    551           * @return  none
    552           */

   \                                 In  segment BANKED_CODE, align 1, keep-with-next
   \                     ?Subroutine8:
   \   000000   7C0C         MOV     R4,#0xc
   \   000002   7D00         MOV     R5,#0x0
   \   000004   AA..         MOV     R2,?V0 + 0
   \   000006   AB..         MOV     R3,?V0 + 1
   \   000008                REQUIRE ??Subroutine11_0
   \   000008                ; // Fall through to label ??Subroutine11_0

   \                                 In  segment BANKED_CODE, align 1, keep-with-next
   \                     ?Subroutine6:
   \   000000   7920         MOV     R1,#0x20
   \   000002   7C..         MOV     R4,#SampleApp_epDesc & 0xff
   \   000004   7D..         MOV     R5,#(SampleApp_epDesc >> 8) & 0xff
   \   000006   7A..         MOV     R2,#SampleApp_P2P_DstAddr & 0xff
   \   000008   7B..         MOV     R3,#(SampleApp_P2P_DstAddr >> 8) & 0xff
   \   00000A                REQUIRE ??Subroutine13_0
   \   00000A                ; // Fall through to label ??Subroutine13_0

   \                                 In  segment BANKED_CODE, align 1, keep-with-next
    553          void SampleApp_Send_P2P_Message( void )
   \                     SampleApp_Send_P2P_Message:
    554          {
   \   000000   74F4         MOV     A,#-0xc
   \   000002   12....       LCALL   ?BANKED_ENTER_XDATA
   \   000005                ; Saved register size: 12
   \   000005                ; Auto size: 12
   \   000005   74F4         MOV     A,#-0xc
   \   000007   12....       LCALL   ?ALLOC_XSTACK8
    555            byte i, temp[3], humidity[3], strTemp[6];
    556          
    557            DHT11();             //获取温湿度
   \   00000A                ; Setup parameters for call to function DHT11
   \   00000A   12....       LCALL   ??DHT11?relay
    558          
    559            //将温湿度的转换成字符串,供LCD显示  
    560            temp[0] = wendu_shi+0x30;
   \   00000D   90....       MOV     DPTR,#wendu_shi
   \   000010   E0           MOVX    A,@DPTR
   \   000011   2430         ADD     A,#0x30
   \   000013   C0E0         PUSH    A
   \   000015   7403         MOV     A,#0x3
   \   000017   12....       LCALL   ?XSTACK_DISP0_8
   \   00001A   D0E0         POP     A
   \   00001C   F0           MOVX    @DPTR,A
    561            temp[1] = wendu_ge+0x30;
   \   00001D   90....       MOV     DPTR,#wendu_ge
   \   000020   E0           MOVX    A,@DPTR
   \   000021   2430         ADD     A,#0x30
   \   000023   C0E0         PUSH    A
   \   000025   7404         MOV     A,#0x4
   \   000027   12....       LCALL   ?XSTACK_DISP0_8
   \   00002A   D0E0         POP     A
   \   00002C   F0           MOVX    @DPTR,A
    562            temp[2] = '\0';
   \   00002D   7405         MOV     A,#0x5
   \   00002F   12....       LCALL   ?XSTACK_DISP0_8
   \   000032   E4           CLR     A
   \   000033   F0           MOVX    @DPTR,A
    563            humidity[0] = shidu_shi+0x30;
   \   000034   90....       MOV     DPTR,#shidu_shi
   \   000037   E0           MOVX    A,@DPTR
   \   000038   2430         ADD     A,#0x30
   \   00003A   85..82       MOV     DPL,?XSP + 0
   \   00003D   85..83       MOV     DPH,?XSP + 1
   \   000040   F0           MOVX    @DPTR,A
    564            humidity[1] = shidu_ge+0x30;
   \   000041   90....       MOV     DPTR,#shidu_ge
   \   000044   E0           MOVX    A,@DPTR
   \   000045   2430         ADD     A,#0x30
   \   000047   C0E0         PUSH    A
   \   000049   7401         MOV     A,#0x1
   \   00004B   12....       LCALL   ?XSTACK_DISP0_8
   \   00004E   D0E0         POP     A
   \   000050   F0           MOVX    @DPTR,A
    565            humidity[2] = '\0';
   \   000051   7402         MOV     A,#0x2
   \   000053   12....       LCALL   ?XSTACK_DISP0_8
   \   000056   E4           CLR     A
   \   000057   F0           MOVX    @DPTR,A
    566            //将数据整合后方便发给协调器显示
    567            osal_memcpy(strTemp, temp, 2); 
   \   000058                ; Setup parameters for call to function osal_memcpy
   \   000058   7403         MOV     A,#0x3
   \   00005A   12....       LCALL   ?XSTACK_DISP0_8
   \   00005D   A982         MOV     R1,DPL
   \   00005F   AA83         MOV     R2,DPH
   \   000061   89..         MOV     ?V0 + 0,R1
   \   000063   8A..         MOV     ?V0 + 1,R2
   \   000065   75..00       MOV     ?V0 + 2,#0x0
   \   000068   78..         MOV     R0,#?V0 + 0
   \   00006A   12....       LCALL   ?PUSH_XSTACK_I_THREE
   \   00006D   7C02         MOV     R4,#0x2
   \   00006F   7D00         MOV     R5,#0x0
   \   000071   7409         MOV     A,#0x9
   \   000073   12....       LCALL   ?XSTACK_DISP0_8
   \   000076   12....       LCALL   ?Subroutine7 & 0xFFFF
   \                     ??CrossCallReturnLabel_21:
   \   000079   12....       LCALL   ?DEALLOC_XSTACK8
    568            osal_memcpy(&strTemp[2], ",", 1);
   \   00007C                ; Setup parameters for call to function osal_memcpy
   \   00007C   75....       MOV     ?V0 + 0,#`?<Constant ",">` & 0xff
   \   00007F   75....       MOV     ?V0 + 1,#(`?<Constant ",">` >> 8) & 0xff
   \   000082   78..         MOV     R0,#?V0 + 0
   \   000084   12....       LCALL   ?PUSH_XSTACK_I_THREE
   \   000087   7C01         MOV     R4,#0x1
   \   000089   7D00         MOV     R5,#0x0
   \   00008B   740B         MOV     A,#0xb
   \   00008D   12....       LCALL   ?XSTACK_DISP0_8
   \   000090   12....       LCALL   ?Subroutine7 & 0xFFFF
   \                     ??CrossCallReturnLabel_22:
   \   000093   12....       LCALL   ?DEALLOC_XSTACK8
    569            osal_memcpy(&strTemp[3], humidity, 3);
   \   000096                ; Setup parameters for call to function osal_memcpy
   \   000096   85..82       MOV     DPL,?XSP + 0
   \   000099   85..83       MOV     DPH,?XSP + 1
   \   00009C   A982         MOV     R1,DPL
   \   00009E   AA83         MOV     R2,DPH
   \   0000A0   89..         MOV     ?V0 + 0,R1
   \   0000A2   8A..         MOV     ?V0 + 1,R2
   \   0000A4   78..         MOV     R0,#?V0 + 0
   \   0000A6   12....       LCALL   ?PUSH_XSTACK_I_THREE
   \   0000A9   7C03         MOV     R4,#0x3
   \   0000AB   7D00         MOV     R5,#0x0
   \   0000AD   740C         MOV     A,#0xc
   \   0000AF   12....       LCALL   ?XSTACK_DISP0_8
   \   0000B2   12....       LCALL   ?Subroutine7 & 0xFFFF
   \                     ??CrossCallReturnLabel_23:
   \   0000B5   12....       LCALL   ?DEALLOC_XSTACK8
    570            
    571            //获得的温湿度通过串口输出到电脑显示
    572            HalUARTWrite(0, "T&H:", 4);
   \   0000B8                ; Setup parameters for call to function HalUARTWrite
   \   0000B8   7C04         MOV     R4,#0x4
   \   0000BA   7D00         MOV     R5,#0x0
   \   0000BC   7A..         MOV     R2,#`?<Constant "T&H:">` & 0xff
   \   0000BE   7B..         MOV     R3,#(`?<Constant "T&H:">` >> 8) & 0xff
   \   0000C0   7900         MOV     R1,#0x0
   \   0000C2   12....       LCALL   ??HalUARTWrite?relay
    573            HalUARTWrite(0, strTemp, 6);
   \   0000C5                ; Setup parameters for call to function HalUARTWrite
   \   0000C5   7C06         MOV     R4,#0x6
   \   0000C7   7D00         MOV     R5,#0x0
   \   0000C9   EC           MOV     A,R4
   \   0000CA   12....       LCALL   ?XSTACK_DISP0_8
   \   0000CD   AA82         MOV     R2,DPL
   \   0000CF   AB83         MOV     R3,DPH
   \   0000D1   12....       LCALL   ?Subroutine2 & 0xFFFF
    574            HalUARTWrite(0, "\n",1);
    575          
    576            //输出到LCD显示
    577            for(i=0; i<3; i++)
    578            {   
    579              if(i==0)
    580              {
    581                LCD_P16x16Ch(i*16,4,i*16);
   \                     ??CrossCallReturnLabel_1:
   \   0000D4                ; Setup parameters for call to function LCD_P16x16Ch
   \   0000D4   7B00         MOV     R3,#0x0
   \   0000D6   7A04         MOV     R2,#0x4
   \   0000D8   7900         MOV     R1,#0x0
   \   0000DA   12....       LCALL   ??LCD_P16x16Ch?relay
    582                LCD_P16x16Ch(i*16,6,(i+3)*16);
   \   0000DD                ; Setup parameters for call to function LCD_P16x16Ch
   \   0000DD   7B30         MOV     R3,#0x30
   \   0000DF   7A06         MOV     R2,#0x6
   \   0000E1   7900         MOV     R1,#0x0
   \   0000E3   12....       LCALL   ??LCD_P16x16Ch?relay
    583              }
   \   0000E6   7F01         MOV     R7,#0x1
    584              else
    585              {
    586                LCD_P16x16Ch(i*16,4,i*16);
   \                     ??SampleApp_Send_P2P_Message_0:
   \   0000E8   EF           MOV     A,R7
   \   0000E9   C4           SWAP    A
   \   0000EA   54F0         ANL     A,#0xf0
   \   0000EC   FE           MOV     R6,A
   \   0000ED                ; Setup parameters for call to function LCD_P16x16Ch
   \   0000ED   FB           MOV     R3,A
   \   0000EE   7A04         MOV     R2,#0x4
   \   0000F0   F9           MOV     R1,A
   \   0000F1   12....       LCALL   ??LCD_P16x16Ch?relay
    587                LCD_P16x16Ch(i*16,6,i*16);        
   \   0000F4                ; Setup parameters for call to function LCD_P16x16Ch
   \   0000F4   EE           MOV     A,R6
   \   0000F5   FB           MOV     R3,A
   \   0000F6   7A06         MOV     R2,#0x6
   \   0000F8   F9           MOV     R1,A
   \   0000F9   12....       LCALL   ??LCD_P16x16Ch?relay
    588              }
    589            } 
   \   0000FC   0F           INC     R7
   \   0000FD   EF           MOV     A,R7
   \   0000FE   C3           CLR     C
   \   0000FF   9403         SUBB    A,#0x3
   \   000101   40E5         JC      ??SampleApp_Send_P2P_Message_0
    590            LCD_P8x16Str(44, 4, temp);
   \   000103                ; Setup parameters for call to function LCD_P8x16Str
   \   000103   7403         MOV     A,#0x3
   \   000105   12....       LCALL   ?XSTACK_DISP0_8
   \   000108   AC82         MOV     R4,DPL
   \   00010A   AD83         MOV     R5,DPH
   \   00010C   7A04         MOV     R2,#0x4
   \   00010E   792C         MOV     R1,#0x2c
   \   000110   12....       LCALL   ??LCD_P8x16Str?relay
    591            LCD_P8x16Str(44, 6, humidity);
   \   000113                ; Setup parameters for call to function LCD_P8x16Str
   \   000113   85..82       MOV     DPL,?XSP + 0
   \   000116   85..83       MOV     DPH,?XSP + 1
   \   000119   AC82         MOV     R4,DPL
   \   00011B   AD83         MOV     R5,DPH
   \   00011D   7A06         MOV     R2,#0x6
   \   00011F   792C         MOV     R1,#0x2c
   \   000121   12....       LCALL   ??LCD_P8x16Str?relay
    592           
    593            if ( AF_DataRequest( &SampleApp_P2P_DstAddr, &SampleApp_epDesc,
    594                                 SAMPLEAPP_P2P_CLUSTERID,
    595                                 6,
    596                                 strTemp,
    597                                 &SampleApp_TransID,
    598                                 AF_DISCV_ROUTE,
    599                                 AF_DEFAULT_RADIUS ) == afStatus_SUCCESS )
   \   000124                ; Setup parameters for call to function AF_DataRequest
   \   000124   75..1E       MOV     ?V0 + 0,#0x1e
   \   000127   78..         MOV     R0,#?V0 + 0
   \   000129   12....       LCALL   ?PUSH_XSTACK_I_ONE
   \   00012C   75....       MOV     ?V0 + 0,#SampleApp_TransID & 0xff
   \   00012F   75....       MOV     ?V0 + 1,#(SampleApp_TransID >> 8) & 0xff
   \   000132   78..         MOV     R0,#?V0 + 0
   \   000134   12....       LCALL   ?PUSH_XSTACK_I_TWO
   \   000137   7409         MOV     A,#0x9
   \   000139   12....       LCALL   ?XSTACK_DISP0_8
   \   00013C   8582..       MOV     ?V0 + 0,DPL
   \   00013F   8583..       MOV     ?V0 + 1,DPH
   \   000142   78..         MOV     R0,#?V0 + 0
   \   000144   12....       LCALL   ?PUSH_XSTACK_I_TWO
   \   000147   75..06       MOV     ?V0 + 0,#0x6
   \   00014A   75..00       MOV     ?V0 + 1,#0x0
   \   00014D   78..         MOV     R0,#?V0 + 0
   \   00014F   12....       LCALL   ?PUSH_XSTACK_I_TWO
   \   000152   75..04       MOV     ?V0 + 0,#0x4
   \   000155   78..         MOV     R0,#?V0 + 0
   \   000157   12....       LCALL   ?PUSH_XSTACK_I_TWO
   \   00015A   12....       LCALL   ?Subroutine6 & 0xFFFF
   \                     ??CrossCallReturnLabel_16:
   \   00015D   12....       LCALL   ?DEALLOC_XSTACK8
    600            {
    601            }
    602            else
    603            {
    604              // Error occurred in request to send.
    605            }
    606            
    607            if(GetGas()==0)
   \   000160   A285         MOV     C,0x80.5
   \   000162   4047         JC      ??SampleApp_Send_P2P_Message_1
    608            {
    609              MicroWait(10000);//Wait 10ms
   \   000164                ; Setup parameters for call to function Onboard_wait
   \   000164   7A10         MOV     R2,#0x10
   \   000166   7B27         MOV     R3,#0x27
   \   000168   12....       LCALL   ??Onboard_wait?relay
    610              if(GetGas()==0) 
   \   00016B   A285         MOV     C,0x80.5
   \   00016D   403C         JC      ??SampleApp_Send_P2P_Message_1
    611              { 
    612                //当输出低电平时信号灯亮,检测到气体 
    613                HalUARTWrite(0,"GotbadAir",12);//串口显示 
   \   00016F   75....       MOV     ?V0 + 0,#`?<Constant "GotbadAir">` & 0xff
   \   000172   75....       MOV     ?V0 + 1,#(`?<Constant "GotbadAir">` >> 8) & 0xff
   \   000175                ; Setup parameters for call to function HalUARTWrite
   \   000175   12....       LCALL   ?Subroutine8 & 0xFFFF
    614                HalLcdWriteString("GotbadAir",HAL_LCD_LINE_3);//LCD显示 
    615                if ( AF_DataRequest( &SampleApp_P2P_DstAddr, &SampleApp_epDesc,
    616                                    SAMPLEAPP_P2P_CLUSTERID,
    617                                    12,
    618                                    "GotbadAir",
    619                                    &SampleApp_TransID,
    620                                    AF_DISCV_ROUTE,
    621                                    AF_DEFAULT_RADIUS ) == afStatus_SUCCESS )
    622                {
    623                }
    624                else
    625                {
    626              // Error occurred in request to send.
    627                }
    628              } 
    629            }
   \                     ??CrossCallReturnLabel_12:
   \   000178   7A..         MOV     R2,#`?<Constant "GotbadAir">` & 0xff
   \   00017A   7B..         MOV     R3,#(`?<Constant "GotbadAir">` >> 8) & 0xff
   \   00017C   12....       LCALL   ?Subroutine5 & 0xFFFF
   \                     ??CrossCallReturnLabel_6:
   \   00017F   12....       LCALL   ?PUSH_XSTACK_I_ONE
   \   000182   75....       MOV     ?V0 + 2,#SampleApp_TransID & 0xff
   \   000185   75....       MOV     ?V0 + 3,#(SampleApp_TransID >> 8) & 0xff
   \   000188   78..         MOV     R0,#?V0 + 2
   \   00018A   12....       LCALL   ?PUSH_XSTACK_I_TWO
   \   00018D   78..         MOV     R0,#?V0 + 0
   \   00018F   12....       LCALL   ?PUSH_XSTACK_I_TWO
   \   000192   75..0C       MOV     ?V0 + 0,#0xc
   \   000195   75..00       MOV     ?V0 + 1,#0x0
   \   000198   78..         MOV     R0,#?V0 + 0
   \   00019A   12....       LCALL   ?PUSH_XSTACK_I_TWO
   \   00019D   75..04       MOV     ?V0 + 0,#0x4
   \   0001A0   78..         MOV     R0,#?V0 + 0
   \   0001A2   12....       LCALL   ?PUSH_XSTACK_I_TWO
   \   0001A5   12....       LCALL   ?Subroutine6 & 0xFFFF
   \                     ??CrossCallReturnLabel_17:
   \   0001A8   12....       LCALL   ?DEALLOC_XSTACK8
    630            if(GetRT()==1)
   \                     ??SampleApp_Send_P2P_Message_1:
   \   0001AB   A286         MOV     C,0x80.6
   \   0001AD   5047         JNC     ??SampleApp_Send_P2P_Message_2
    631            {
    632              MicroWait(10000);//Wait 10ms
   \   0001AF                ; Setup parameters for call to function Onboard_wait
   \   0001AF   7A10         MOV     R2,#0x10
   \   0001B1   7B27         MOV     R3,#0x27
   \   0001B3   12....       LCALL   ??Onboard_wait?relay
    633              if(GetRT()==1) 
   \   0001B6   A286         MOV     C,0x80.6
   \   0001B8   503C         JNC     ??SampleApp_Send_P2P_Message_2
    634              { 
    635                //当输出低电平时信号灯亮,检测到气体 
    636                HalUARTWrite(0,"GotBadGuy",12);//串口显示 
   \   0001BA   75....       MOV     ?V0 + 0,#`?<Constant "GotBadGuy">` & 0xff
   \   0001BD   75....       MOV     ?V0 + 1,#(`?<Constant "GotBadGuy">` >> 8) & 0xff
   \   0001C0                ; Setup parameters for call to function HalUARTWrite
   \   0001C0   12....       LCALL   ?Subroutine8 & 0xFFFF
    637                HalLcdWriteString("GotBadGuy",HAL_LCD_LINE_3);//LCD显示 
    638                if ( AF_DataRequest( &SampleApp_P2P_DstAddr, &SampleApp_epDesc,
    639                                    SAMPLEAPP_P2P_CLUSTERID,
    640                                    12,
    641                                    "GotBadGuy",
    642                                    &SampleApp_TransID,
    643                                    AF_DISCV_ROUTE,
    644                                    AF_DEFAULT_RADIUS ) == afStatus_SUCCESS )
    645                {
    646                }
    647                else
    648                {
    649              // Error occurred in request to send.
    650                }
    651              } 
    652            }
   \                     ??CrossCallReturnLabel_13:
   \   0001C3   7A..         MOV     R2,#`?<Constant "GotBadGuy">` & 0xff
   \   0001C5   7B..         MOV     R3,#(`?<Constant "GotBadGuy">` >> 8) & 0xff
   \   0001C7   12....       LCALL   ?Subroutine5 & 0xFFFF
   \                     ??CrossCallReturnLabel_7:
   \   0001CA   12....       LCALL   ?PUSH_XSTACK_I_ONE
   \   0001CD   75....       MOV     ?V0 + 2,#SampleApp_TransID & 0xff
   \   0001D0   75....       MOV     ?V0 + 3,#(SampleApp_TransID >> 8) & 0xff
   \   0001D3   78..         MOV     R0,#?V0 + 2
   \   0001D5   12....       LCALL   ?PUSH_XSTACK_I_TWO
   \   0001D8   78..         MOV     R0,#?V0 + 0
   \   0001DA   12....       LCALL   ?PUSH_XSTACK_I_TWO
   \   0001DD   75..0C       MOV     ?V0 + 0,#0xc
   \   0001E0   75..00       MOV     ?V0 + 1,#0x0
   \   0001E3   78..         MOV     R0,#?V0 + 0
   \   0001E5   12....       LCALL   ?PUSH_XSTACK_I_TWO
   \   0001E8   75..04       MOV     ?V0 + 0,#0x4
   \   0001EB   78..         MOV     R0,#?V0 + 0
   \   0001ED   12....       LCALL   ?PUSH_XSTACK_I_TWO
   \   0001F0   12....       LCALL   ?Subroutine6 & 0xFFFF
   \                     ??CrossCallReturnLabel_18:
   \   0001F3   12....       LCALL   ?DEALLOC_XSTACK8
    653          }
   \                     ??SampleApp_Send_P2P_Message_2:
   \   0001F6   740C         MOV     A,#0xc
   \   0001F8   12....       LCALL   ?DEALLOC_XSTACK8
   \   0001FB   02....       LJMP    ?Subroutine1 & 0xFFFF
   \   0001FE                REQUIRE _A_P0

   \                                 In  segment BANKED_CODE, align 1, keep-with-next
   \                     ?Subroutine7:
   \   000000   AA82         MOV     R2,DPL
   \   000002   AB83         MOV     R3,DPH
   \   000004                REQUIRE ??Subroutine14_0
   \   000004                ; // Fall through to label ??Subroutine14_0

   \                                 In  segment BANKED_CODE, align 1, keep-with-next
   \                     ?Subroutine5:
   \   000000   12....       LCALL   ??HalLcdWriteString?relay
   \   000003                ; Setup parameters for call to function AF_DataRequest
   \   000003                ; Setup parameters for call to function AF_DataRequest
   \   000003   75..1E       MOV     ?V0 + 2,#0x1e
   \   000006   78..         MOV     R0,#?V0 + 2
   \   000008   22           RET

   \                                 In  segment XDATA_ID, align 1, keep-with-next
   \                     `?<Initializer for cipstart>`:
   \   000000   ....         DW `?<Constant "AT+CIPSTART=\\"TCP\\",\\"10...">`

   \                                 In  segment XDATA_ID, align 1, keep-with-next
   \                     `?<Initializer for Seddstr>`:
   \   000000   61626364     DB "abcdefg"
   \            65666700
   \   000008   0000         DB 0, 0

   \                                 In  segment XDATA_ID, align 1, keep-with-next
   \                     `?<Initializer for cwjap>`:
   \   000000   ....         DW `?<Constant "AT+CWJAP=\\"Lee\\",\\"woshi...">`

   \                                 In  segment XDATA_ID, align 1, keep-with-next
   \                     `?<Initializer for cwmode>`:
   \   000000   ....         DW `?<Constant "AT+CWMODE=3\\r\\n">`

   \                                 In  segment BANK_RELAYS, align 1
   \                     ??Init_Wifi?relay:
   \   000000   12....       LCALL   ?BDISPATCH
   \   000003   ......       DC24    Init_Wifi

   \                                 In  segment BANK_RELAYS, align 1
   \                     ??WifiSendData?relay:
   \   000000   12....       LCALL   ?BDISPATCH
   \   000003   ......       DC24    WifiSendData

   \                                 In  segment BANK_RELAYS, align 1
   \                     ??SampleApp_Init?relay:
   \   000000   12....       LCALL   ?BDISPATCH
   \   000003   ......       DC24    SampleApp_Init

   \                                 In  segment BANK_RELAYS, align 1
   \                     ??SampleApp_ProcessEvent?relay:
   \   000000   12....       LCALL   ?BDISPATCH
   \   000003   ......       DC24    SampleApp_ProcessEvent

   \                                 In  segment BANK_RELAYS, align 1
   \                     ??SampleApp_HandleKeys?relay:
   \   000000   12....       LCALL   ?BDISPATCH
   \   000003   ......       DC24    SampleApp_HandleKeys

   \                                 In  segment BANK_RELAYS, align 1
   \                     ??SampleApp_MessageMSGCB?relay:
   \   000000   12....       LCALL   ?BDISPATCH
   \   000003   ......       DC24    SampleApp_MessageMSGCB

   \                                 In  segment BANK_RELAYS, align 1
   \                     ??SampleApp_SendPeriodicMessage?relay:
   \   000000   12....       LCALL   ?BDISPATCH
   \   000003   ......       DC24    SampleApp_SendPeriodicMessage

   \                                 In  segment BANK_RELAYS, align 1
   \                     ??SampleApp_SendFlashMessage?relay:
   \   000000   12....       LCALL   ?BDISPATCH
   \   000003   ......       DC24    SampleApp_SendFlashMessage

   \                                 In  segment BANK_RELAYS, align 1
   \                     ??SampleApp_Send_P2P_Message?relay:
   \   000000   12....       LCALL   ?BDISPATCH
   \   000003   ......       DC24    SampleApp_Send_P2P_Message

   \                                 In  segment XDATA_ROM_C, align 1
   \                     `?<Constant "AT+CIPSTART=\\"TCP\\",\\"10...">`:
   \   000000   41542B43     DB "AT+CIPSTART=\"TCP\",\"106.14.151.117\",35447\015\012"
   \            49505354
   \            4152543D
   \            22544350
   \            222C2231
   \            30362E31
   \            342E3135
   \            312E3131
   \            37222C33
   \            35343437
   \            0D0A00  

   \                                 In  segment XDATA_ROM_C, align 1
   \                     `?<Constant "AT+CWJAP=\\"Lee\\",\\"woshi...">`:
   \   000000   41542B43     DB "AT+CWJAP=\"Lee\",\"woshierbi\"\015\012"
   \            574A4150
   \            3D224C65
   \            65222C22
   \            776F7368
   \            69657262
   \            69220D0A
   \            00      

   \                                 In  segment XDATA_ROM_C, align 1
   \                     `?<Constant "AT+CWMODE=3\\r\\n">`:
   \   000000   41542B43     DB "AT+CWMODE=3\015\012"
   \            574D4F44
   \            453D330D
   \            0A00    

   \                                 In  segment XDATA_ROM_C, align 1
   \                     `?<Constant "initwifi">`:
   \   000000   696E6974     DB "initwifi"
   \            77696669
   \            00      

   \                                 In  segment XDATA_ROM_C, align 1
   \                     `?<Constant "Connect-Wifi..">`:
   \   000000   436F6E6E     DB "Connect-Wifi.."
   \            6563742D
   \            57696669
   \            2E2E00  

   \                                 In  segment XDATA_ROM_C, align 1
   \                     `?<Constant "Connect-Server..">`:
   \   000000   436F6E6E     DB "Connect-Server.."
   \            6563742D
   \            53657276
   \            65722E2E
   \            00      

   \                                 In  segment XDATA_ROM_C, align 1
   \                     `?<Constant "AT+CIPMUX=0\\r\\n">`:
   \   000000   41542B43     DB "AT+CIPMUX=0\015\012"
   \            49504D55
   \            583D300D
   \            0A00    

   \                                 In  segment XDATA_ROM_C, align 1
   \                     `?<Constant "">`:
   \   000000   00           DB ""
   \   000001   00000000     DB 0, 0, 0, 0, 0, 0, 0, 0
   \            00000000
   \   000009   00000000     DB 0, 0, 0, 0, 0, 0, 0, 0
   \            00000000
   \   000011   00000000     DB 0, 0, 0, 0, 0, 0, 0, 0
   \            00000000
   \   000019   00000000     DB 0, 0, 0, 0, 0, 0, 0, 0
   \            00000000
   \   000021   00000000     DB 0, 0, 0, 0, 0, 0, 0, 0
   \            00000000
   \   000029   00000000     DB 0, 0, 0, 0, 0, 0, 0, 0
   \            00000000
   \   000031   00           DB 0

   \                                 In  segment XDATA_ROM_C, align 1
   \                     `?<Constant "%s#\\r\\n">`:
   \   000000   2573230D     DB "%s#\015\012"
   \            0A00    

   \                                 In  segment XDATA_ROM_C, align 1
   \                     `?<Constant "">_1`:
   \   000000   00           DB ""
   \   000001   00000000     DB 0, 0, 0, 0, 0, 0, 0, 0
   \            00000000
   \   000009   00000000     DB 0, 0, 0, 0, 0, 0, 0, 0
   \            00000000
   \   000011   00000000     DB 0, 0, 0, 0, 0, 0, 0, 0
   \            00000000
   \   000019   00000000     DB 0, 0, 0, 0, 0, 0, 0, 0
   \            00000000
   \   000021   00000000     DB 0, 0, 0, 0, 0, 0, 0, 0
   \            00000000
   \   000029   00000000     DB 0, 0, 0, 0, 0, 0, 0, 0
   \            00000000
   \   000031   00           DB 0

   \                                 In  segment XDATA_ROM_C, align 1
   \                     `?<Constant "AT+CIPSEND=%d\\r\\n">`:
   \   000000   41542B43     DB "AT+CIPSEND=%d\015\012"
   \            49505345
   \            4E443D25
   \            640D0A00

   \                                 In  segment XDATA_ROM_C, align 1
   \                     `?<Constant "Group 1">`:
   \   000000   47726F75     DB "Group 1"
   \            70203100

   \                                 In  segment XDATA_ROM_C, align 1
   \                     `?<Constant "SampleApp">`:
   \   000000   53616D70     DB "SampleApp"
   \            6C654170
   \            7000    

   \                                 In  segment XDATA_ROM_C, align 1
   \                     `?<Constant "T&H:">`:
   \   000000   5426483A     DB "T&H:"
   \            00      

   \                                 In  segment XDATA_ROM_C, align 1
   \                     `?<Constant "\\n">`:
   \   000000   0A00         DB "\012"

   \                                 In  segment XDATA_ROM_C, align 1
   \                     `?<Constant ",">`:
   \   000000   2C00         DB ","

   \                                 In  segment XDATA_ROM_C, align 1
   \                     `?<Constant "GotbadAir">`:
   \   000000   476F7462     DB "GotbadAir"
   \            61644169
   \            7200    

   \                                 In  segment XDATA_ROM_C, align 1
   \                     `?<Constant "GotBadGuy">`:
   \   000000   476F7442     DB "GotBadGuy"
   \            61644775
   \            7900    
    654          
    655          //获得P0_4 继电器引脚的电平
    656          uint8 GetLamp( void )
                       ^
Warning[Pe177]: function "GetLamp" was declared but never referenced
    657          {
    658            uint8 ret;
    659            
    660            if(LAMP_PIN == 0)
    661              ret = 1;
    662            else
    663              ret = 0;
    664            
    665            return ret;
    666          }
    667          
    668          //获得P0_5 MQ-2气体传感器的数据
    669          uint8 GetGas( void )
    670          {
    671            uint8 ret;
    672            
    673            if(GAS_PIN == 0)
    674              ret = 0;
    675            else
    676              ret = 1;
    677            
    678            return ret;
    679          }
    680          
    681          //获得P0_6 人体红外热释电传感器的数据
    682          uint8 GetRT( void )
    683          {
    684            uint8 ret;
    685            
    686            if(RT_PIN == 0)
    687              ret = 0;
    688            else
    689              ret = 1;
    690            
    691            return ret;
    692          }
    693          /*********************************************************************
    694          *********************************************************************/

   Maximum stack usage in bytes:

     Function                       ISTACK PSTACK XSTACK
     --------                       ------ ------ ------
     Init_Wifi                          0      0     21
       -> HalLcdWriteString             0      0     20
       -> strlen                        0      0     20
       -> HalUARTWrite                  0      0     20
       -> HalLcdWriteString             0      0     20
       -> Delay_ms                      0      0     20
       -> strlen                        0      0     20
       -> HalUARTWrite                  0      0     20
       -> HalLcdWriteString             0      0     20
       -> Delay_ms                      0      0     20
       -> HalUARTWrite                  0      0     20
       -> Delay_ms                      0      0     20
     SampleApp_HandleKeys               0      0     22
       -> SampleApp_SendFlashMessage
                                        0      0     20
       -> aps_FindGroup                 0      0     20
       -> aps_RemoveGroup               0      0     20
       -> aps_AddGroup                  0      0     20
     SampleApp_Init                     0      0     14
       -> MT_UartInit                   0      0     22
       -> MT_UartRegisterTaskID         0      0     22
       -> afRegister                    0      0     22
       -> RegisterForKeys               0      0     22
       -> osal_memcpy                   0      0     28
       -> aps_AddGroup                  0      0     22
       -> HalLcdWriteString             0      0     22
       -> Init_Wifi                     0      0     22
     SampleApp_MessageMSGCB             0      0     24
       -> HalUARTWrite                  0      0     24
       -> HalUARTWrite                  0      0     24
       -> HalUARTWrite                  0      0     24
       -> WifiSendData                  0      0     24
       -> HalLedBlink                   0      0     24
     SampleApp_ProcessEvent             0      0     12
       -> osal_msg_receive              0      0     24
       -> osal_start_timerEx            0      0     24
       -> osal_msg_deallocate           0      0     24
       -> osal_msg_receive              0      0     24
       -> SampleApp_HandleKeys          0      0     24
       -> SampleApp_MessageMSGCB        0      0     24
       -> SampleApp_Send_P2P_Message
                                        0      0     24
       -> osal_rand                     0      0     24
       -> osal_start_timerEx            0      0     24
     SampleApp_SendFlashMessage         1      0     32
       -> AF_DataRequest                0      0     44
     SampleApp_SendPeriodicMessage      0      0     19
       -> AF_DataRequest                0      0     38
     SampleApp_Send_P2P_Message         1      0     45
       -> DHT11                         0      0     48
       -> osal_memcpy                   0      0     54
       -> osal_memcpy                   0      0     54
       -> osal_memcpy                   0      0     54
       -> HalUARTWrite                  0      0     48
       -> HalUARTWrite                  0      0     48
       -> HalUARTWrite                  0      0     48
       -> LCD_P16x16Ch                  0      0     48
       -> LCD_P16x16Ch                  0      0     48
       -> LCD_P16x16Ch                  0      0     48
       -> LCD_P16x16Ch                  0      0     48
       -> LCD_P8x16Str                  0      0     48
       -> LCD_P8x16Str                  0      0     48
       -> AF_DataRequest                0      0     66
       -> Onboard_wait                  0      0     48
       -> HalUARTWrite                  0      0     48
       -> HalLcdWriteString             0      0     48
       -> AF_DataRequest                0      0     66
       -> Onboard_wait                  0      0     48
       -> HalUARTWrite                  0      0     48
       -> HalLcdWriteString             0      0     48
       -> AF_DataRequest                0      0     66
     WifiSendData                       2      0    124
       -> sprintf                       0      0    224
       -> strlen                        0      0    220
       -> sprintf                       0      0    224
       -> strlen                        0      0    220
       -> HalUARTWrite                  0      0    220
       -> Delay_ms                      0      0    220
       -> strlen                        0      0    220
       -> HalUARTWrite                  0      0    220
       -> HalLcdWriteString             0      0    220
       -> HalLcdWriteString             0      0    220


   Segment part sizes:

     Function/Label                            Bytes
     --------------                            -----
     _A_P0                                        1
     P0SEL                                        1
     SampleApp_ClusterList                        4
     SampleApp_SimpleDesc                        12
     SampleApp_epDesc                             6
     SampleApp_TaskID                             1
     SampleApp_NwkState                           1
     SampleApp_TransID                            1
     SampleApp_Periodic_DstAddr                  12
     SampleApp_Flash_DstAddr                     12
     SampleApp_P2P_DstAddr                       12
     SampleApp_Group                             18
     SampleAppPeriodicCounter                     1
     SampleAppFlashCounter                        1
     cipstart                                     2
     Seddstr                                     10
     cwjap                                        2
     cwmode                                       2
     Init_Wifi                                   89
     ?Subroutine4                                 7
     ?Subroutine3                                15
     ??Subroutine10_0                             6
     ??Subroutine11_0                             8
     ??Subroutine12_0                             5
     WifiSendData                               222
     ?Subroutine0                                 3
     SampleApp_Init                             189
     ??Subroutine14_0                             6
     SampleApp_ProcessEvent                     171
     ?Subroutine1                                 5
     SampleApp_HandleKeys                        62
     ?Subroutine9                                 4
     SampleApp_MessageMSGCB                     148
     ?Subroutine2                                19
     SampleApp_SendPeriodicMessage               66
     ??Subroutine13_0                             6
     SampleApp_SendFlashMessage                 113
     ?Subroutine8                                 8
     ?Subroutine6                                10
     SampleApp_Send_P2P_Message                 510
     ?Subroutine7                                 4
     ?Subroutine5                                 9
     ?<Initializer for cipstart>                  2
     ?<Initializer for Seddstr>                  10
     ?<Initializer for cwjap>                     2
     ?<Initializer for cwmode>                    2
     ??Init_Wifi?relay                            6
     ??WifiSendData?relay                         6
     ??SampleApp_Init?relay                       6
     ??SampleApp_ProcessEvent?relay               6
     ??SampleApp_HandleKeys?relay                 6
     ??SampleApp_MessageMSGCB?relay               6
     ??SampleApp_SendPeriodicMessage?relay        6
     ??SampleApp_SendFlashMessage?relay           6
     ??SampleApp_Send_P2P_Message?relay           6
     ?<Constant "AT+CIPSTART=\"TCP\",\"10...">   43
     ?<Constant "AT+CWJAP=\"Lee\",\"woshi...">   29
     ?<Constant "AT+CWMODE=3\r\n">               14
     ?<Constant "initwifi">                       9
     ?<Constant "Connect-Wifi..">                15
     ?<Constant "Connect-Server..">              17
     ?<Constant "AT+CIPMUX=0\r\n">               14
     ?<Constant "">                              50
     ?<Constant "%s#\r\n">                        6
     ?<Constant "">_1                            50
     ?<Constant "AT+CIPSEND=%d\r\n">             16
     ?<Constant "Group 1">                        8
     ?<Constant "SampleApp">                     10
     ?<Constant "T&H:">                           5
     ?<Constant "\n">                             2
     ?<Constant ",">                              2
     ?<Constant "GotbadAir">                     10
     ?<Constant "GotBadGuy">                     10

 
 1 685 bytes in segment BANKED_CODE
    54 bytes in segment BANK_RELAYS
     2 bytes in segment SFR_AN
    16 bytes in segment XDATA_I
    16 bytes in segment XDATA_ID
   326 bytes in segment XDATA_ROM_C
    65 bytes in segment XDATA_Z
 
 1 755 bytes of CODE  memory
   326 bytes of CONST memory
     0 bytes of DATA  memory (+ 2 bytes shared)
    81 bytes of XDATA memory

Errors: none
Warnings: 6
