///////////////////////////////////////////////////////////////////////////////
//                                                                            /
// IAR C/C++ Compiler V8.10.3.10338/W32 for 8051        24/Apr/2018  13:44:04 /
// Copyright 2004-2011 IAR Systems AB.                                        /
//                                                                            /
//    Core               =  plain                                             /
//    Code model         =  banked                                            /
//    Data model         =  large                                             /
//    Calling convention =  xdata reentrant                                   /
//    Constant location  =  data_rom                                          /
//    Dptr setup         =  1,16                                              /
//    Source file        =  H:\ZigBee\code\WiFi_ZigBee\Projects\zstack\Utilit /
//                          ies\SerialApp\Source\WIFI.C                       /
//    Command line       =  -f H:\ZigBee\code\ZStack-CC2530-2.3.0-1.4.0\Proje /
//                          cts\zstack\Samples\SampleApp\CC2530DB\..\..\..\To /
//                          ols\CC2530DB\f8wEndev.cfg (-DCPU32MHZ             /
//                          -DROOT=__near_func -DBLINK_LEDS) -f               /
//                          H:\ZigBee\code\ZStack-CC2530-2.3.0-1.4.0\Projects /
//                          \zstack\Samples\SampleApp\CC2530DB\..\..\..\Tools /
//                          \CC2530DB\f8wConfig.cfg (-DSECURE=0               /
//                          -DZG_SECURE_DYNAMIC=0 -DREFLECTOR                 /
//                          -DDEFAULT_CHANLIST=0x00000800                     /
//                          -DZDAPP_CONFIG_PAN_ID=0xFFF1                      /
//                          -DNWK_START_DELAY=100 -DEXTENDED_JOINING_RANDOM_M /
//                          ASK=0x007F -DBEACON_REQUEST_DELAY=100             /
//                          -DBEACON_REQ_DELAY_MASK=0x00FF                    /
//                          -DROUTE_EXPIRY_TIME=30 -DAPSC_ACK_WAIT_DURATION_P /
//                          OLLED=3000 -DNWK_INDIRECT_MSG_TIMEOUT=7           /
//                          -DMAX_RREQ_ENTRIES=8 -DAPSC_MAX_FRAME_RETRIES=3   /
//                          -DNWK_MAX_DATA_RETRIES=2                          /
//                          -DMAX_POLL_FAILURE_RETRIES=2 -DMAX_BCAST=9        /
//                          -DAPS_MAX_GROUPS=16 -DMAX_RTG_ENTRIES=40          /
//                          -DNWK_MAX_BINDING_ENTRIES=4                       /
//                          -DMAX_BINDING_CLUSTER_IDS=4                       /
//                          "-DDEFAULT_KEY={0x01, 0x03, 0x05, 0x07, 0x09,     /
//                          0x0B, 0x0D, 0x0F, 0x00, 0x02, 0x04, 0x06, 0x08,   /
//                          0x0A, 0x0C, 0x0D}" -DMAC_MAX_FRAME_SIZE=116       /
//                          "-DCONST=const __code" -DGENERIC=__generic        /
//                          -DRFD_RCVC_ALWAYS_ON=FALSE -DPOLL_RATE=1000       /
//                          -DQUEUED_POLL_RATE=100 -DRESPONSE_POLL_RATE=100)  /
//                          -DREJOIN_POLL_RATE=440 H:\ZigBee\code\WiFi_ZigBee /
//                          \Projects\zstack\Utilities\SerialApp\Source\WIFI. /
//                          C -D ZIGBEEPRO -D NWK_AUTO_POLL -D ZTOOL_P1 -D    /
//                          xMT_TASK -D xMT_SYS_FUNC -D xMT_ZDO_FUNC -D       /
//                          LCD_SUPPORTED=DEBUG -lC                           /
//                          H:\ZigBee\code\ZStack-CC2530-2.3.0-1.4.0\Projects /
//                          \zstack\Samples\SampleApp\CC2530DB\EndDeviceEB-Pr /
//                          o\List\ -lA H:\ZigBee\code\ZStack-CC2530-2.3.0-1. /
//                          4.0\Projects\zstack\Samples\SampleApp\CC2530DB\En /
//                          dDeviceEB-Pro\List\ --diag_suppress Pe001,Pa010   /
//                          -o H:\ZigBee\code\ZStack-CC2530-2.3.0-1.4.0\Proje /
//                          cts\zstack\Samples\SampleApp\CC2530DB\EndDeviceEB /
//                          -Pro\Obj\ -e --debug --core=plain --dptr=16,1     /
//                          --data_model=large --code_model=banked            /
//                          --calling_convention=xdata_reentrant              /
//                          --place_constants=data_rom --nr_virtual_regs 16   /
//                          -I H:\ZigBee\code\ZStack-CC2530-2.3.0-1.4.0\Proje /
//                          cts\zstack\Samples\SampleApp\CC2530DB\ -I         /
//                          H:\ZigBee\code\ZStack-CC2530-2.3.0-1.4.0\Projects /
//                          \zstack\Samples\SampleApp\CC2530DB\..\SOURCE\ -I  /
//                          H:\ZigBee\code\ZStack-CC2530-2.3.0-1.4.0\Projects /
//                          \zstack\Samples\SampleApp\CC2530DB\..\..\..\ZMAIN /
//                          \TI2530DB\ -I H:\ZigBee\code\ZStack-CC2530-2.3.0- /
//                          1.4.0\Projects\zstack\Samples\SampleApp\CC2530DB\ /
//                          ..\..\..\..\..\COMPONENTS\MT\ -I                  /
//                          H:\ZigBee\code\ZStack-CC2530-2.3.0-1.4.0\Projects /
//                          \zstack\Samples\SampleApp\CC2530DB\..\..\..\..\.. /
//                          \COMPONENTS\HAL\INCLUDE\ -I                       /
//                          H:\ZigBee\code\ZStack-CC2530-2.3.0-1.4.0\Projects /
//                          \zstack\Samples\SampleApp\CC2530DB\..\..\..\..\.. /
//                          \COMPONENTS\HAL\TARGET\CC2530EB\ -I               /
//                          H:\ZigBee\code\ZStack-CC2530-2.3.0-1.4.0\Projects /
//                          \zstack\Samples\SampleApp\CC2530DB\..\..\..\..\.. /
//                          \COMPONENTS\OSAL\MCU\CCSOC\ -I                    /
//                          H:\ZigBee\code\ZStack-CC2530-2.3.0-1.4.0\Projects /
//                          \zstack\Samples\SampleApp\CC2530DB\..\..\..\..\.. /
//                          \COMPONENTS\OSAL\INCLUDE\ -I                      /
//                          H:\ZigBee\code\ZStack-CC2530-2.3.0-1.4.0\Projects /
//                          \zstack\Samples\SampleApp\CC2530DB\..\..\..\..\.. /
//                          \COMPONENTS\STACK\AF\ -I                          /
//                          H:\ZigBee\code\ZStack-CC2530-2.3.0-1.4.0\Projects /
//                          \zstack\Samples\SampleApp\CC2530DB\..\..\..\..\.. /
//                          \COMPONENTS\STACK\NWK\ -I                         /
//                          H:\ZigBee\code\ZStack-CC2530-2.3.0-1.4.0\Projects /
//                          \zstack\Samples\SampleApp\CC2530DB\..\..\..\..\.. /
//                          \COMPONENTS\STACK\SEC\ -I                         /
//                          H:\ZigBee\code\ZStack-CC2530-2.3.0-1.4.0\Projects /
//                          \zstack\Samples\SampleApp\CC2530DB\..\..\..\..\.. /
//                          \COMPONENTS\STACK\SAPI\ -I                        /
//                          H:\ZigBee\code\ZStack-CC2530-2.3.0-1.4.0\Projects /
//                          \zstack\Samples\SampleApp\CC2530DB\..\..\..\..\.. /
//                          \COMPONENTS\STACK\SYS\ -I                         /
//                          H:\ZigBee\code\ZStack-CC2530-2.3.0-1.4.0\Projects /
//                          \zstack\Samples\SampleApp\CC2530DB\..\..\..\..\.. /
//                          \COMPONENTS\STACK\ZDO\ -I                         /
//                          H:\ZigBee\code\ZStack-CC2530-2.3.0-1.4.0\Projects /
//                          \zstack\Samples\SampleApp\CC2530DB\..\..\..\..\.. /
//                          \COMPONENTS\ZMAC\F8W\ -I                          /
//                          H:\ZigBee\code\ZStack-CC2530-2.3.0-1.4.0\Projects /
//                          \zstack\Samples\SampleApp\CC2530DB\..\..\..\..\.. /
//                          \COMPONENTS\ZMAC\ -I H:\ZigBee\code\ZStack-CC2530 /
//                          -2.3.0-1.4.0\Projects\zstack\Samples\SampleApp\CC /
//                          2530DB\..\..\..\..\..\COMPONENTS\SERVICES\SADDR\  /
//                          -I H:\ZigBee\code\ZStack-CC2530-2.3.0-1.4.0\Proje /
//                          cts\zstack\Samples\SampleApp\CC2530DB\..\..\..\.. /
//                          \..\COMPONENTS\SERVICES\SDATA\ -I                 /
//                          H:\ZigBee\code\ZStack-CC2530-2.3.0-1.4.0\Projects /
//                          \zstack\Samples\SampleApp\CC2530DB\..\..\..\..\.. /
//                          \COMPONENTS\MAC\INCLUDE\ -I                       /
//                          H:\ZigBee\code\ZStack-CC2530-2.3.0-1.4.0\Projects /
//                          \zstack\Samples\SampleApp\CC2530DB\..\..\..\..\.. /
//                          \COMPONENTS\MAC\HIGH_LEVEL\ -I                    /
//                          H:\ZigBee\code\ZStack-CC2530-2.3.0-1.4.0\Projects /
//                          \zstack\Samples\SampleApp\CC2530DB\..\..\..\..\.. /
//                          \COMPONENTS\MAC\LOW_LEVEL\srf04\ -I               /
//                          H:\ZigBee\code\ZStack-CC2530-2.3.0-1.4.0\Projects /
//                          \zstack\Samples\SampleApp\CC2530DB\..\..\..\..\.. /
//                          \COMPONENTS\MAC\LOW_LEVEL\srf04\SINGLE_CHIP\      /
//                          -Ohz --require_prototypes                         /
//    List file          =  H:\ZigBee\code\ZStack-CC2530-2.3.0-1.4.0\Projects /
//                          \zstack\Samples\SampleApp\CC2530DB\EndDeviceEB-Pr /
//                          o\List\WIFI.s51                                   /
//                                                                            /
//                                                                            /
///////////////////////////////////////////////////////////////////////////////

        NAME WIFI

        RTMODEL "__SystemLibrary", "CLib"
        RTMODEL "__calling_convention", "xdata_reentrant"
        RTMODEL "__code_model", "banked"
        RTMODEL "__core", "plain"
        RTMODEL "__data_model", "large"
        RTMODEL "__dptr_size", "16"
        RTMODEL "__extended_stack", "disabled"
        RTMODEL "__location_for_constants", "data"
        RTMODEL "__number_of_dptrs", "1"
        RTMODEL "__rt_version", "1"

        RSEG DOVERLAY:DATA:NOROOT(0)
        RSEG IOVERLAY:IDATA:NOROOT(0)
        RSEG ISTACK:IDATA:NOROOT(0)
        RSEG PSTACK:XDATA:NOROOT(0)
        RSEG XSTACK:XDATA:NOROOT(0)

        EXTERN ?BANKED_ENTER_XDATA
        EXTERN ?BANKED_LEAVE_XDATA
        EXTERN ?BDISPATCH
        EXTERN ?BRET
        EXTERN ?V0

        PUBLIC ??Connect_Wifi?relay
        FUNCTION ??Connect_Wifi?relay,0203H
        PUBLIC ??Init_ESP8266?relay
        FUNCTION ??Init_ESP8266?relay,0203H
        PUBLIC ??Init_MUX?relay
        FUNCTION ??Init_MUX?relay,0203H
        PUBLIC ??Init_Server?relay
        FUNCTION ??Init_Server?relay,0203H
        PUBLIC ??SetWifi?relay
        FUNCTION ??SetWifi?relay,0203H
        PUBLIC ??Wifi_Rst?relay
        FUNCTION ??Wifi_Rst?relay,0203H
        PUBLIC ??clearBuff?relay
        FUNCTION ??clearBuff?relay,0203H
        PUBLIC ??dispIGTState?relay
        FUNCTION ??dispIGTState?relay,0203H
        PUBLIC Connect_Wifi
        FUNCTION Connect_Wifi,021203H
        ARGFRAME XSTACK, 0, STACK
        LOCFRAME XSTACK, 10, STACK
        PUBLIC Init_ESP8266
        FUNCTION Init_ESP8266,021203H
        ARGFRAME XSTACK, 0, STACK
        LOCFRAME ISTACK, 2, STACK
        PUBLIC Init_MUX
        FUNCTION Init_MUX,021203H
        ARGFRAME XSTACK, 0, STACK
        LOCFRAME XSTACK, 10, STACK
        PUBLIC Init_Server
        FUNCTION Init_Server,021203H
        ARGFRAME XSTACK, 0, STACK
        LOCFRAME XSTACK, 10, STACK
        PUBWEAK P0DIR
        PUBLIC SetWifi
        FUNCTION SetWifi,021203H
        ARGFRAME XSTACK, 0, STACK
        LOCFRAME ISTACK, 2, STACK
        PUBLIC Wifi_Rst
        FUNCTION Wifi_Rst,021203H
        ARGFRAME XSTACK, 0, STACK
        LOCFRAME ISTACK, 2, STACK
        PUBWEAK _A_P0
        PUBLIC clearBuff
        FUNCTION clearBuff,0203H
        ARGFRAME XSTACK, 10, STACK
        ARGFRAME IOVERLAY, 0, STATIC
        ARGFRAME DOVERLAY, 0, STATIC
        LOCFRAME ISTACK, 2, STACK
        PUBLIC dispIGTState
        FUNCTION dispIGTState,021203H
        ARGFRAME XSTACK, 0, STACK
        LOCFRAME ISTACK, 2, STACK
        
        CFI Names cfiNames0
        CFI StackFrame CFA_SP SP IDATA
        CFI StackFrame CFA_PSP16 PSP16 XDATA
        CFI StackFrame CFA_XSP16 XSP16 XDATA
        CFI StaticOverlayFrame CFA_IOVERLAY IOVERLAY
        CFI StaticOverlayFrame CFA_DOVERLAY DOVERLAY
        CFI Resource `PSW.CY`:1, `B.BR0`:1, `B.BR1`:1, `B.BR2`:1, `B.BR3`:1
        CFI Resource `B.BR4`:1, `B.BR5`:1, `B.BR6`:1, `B.BR7`:1, `VB.BR8`:1
        CFI Resource `VB.BR9`:1, `VB.BR10`:1, `VB.BR11`:1, `VB.BR12`:1
        CFI Resource `VB.BR13`:1, `VB.BR14`:1, `VB.BR15`:1, VB:8, B:8, A:8
        CFI Resource PSW:8, DPL0:8, DPH0:8, R0:8, R1:8, R2:8, R3:8, R4:8, R5:8
        CFI Resource R6:8, R7:8, V0:8, V1:8, V2:8, V3:8, V4:8, V5:8, V6:8, V7:8
        CFI Resource V8:8, V9:8, V10:8, V11:8, V12:8, V13:8, V14:8, V15:8, SP:8
        CFI Resource PSPH:8, PSPL:8, PSP16:16, XSPH:8, XSPL:8, XSP16:16
        CFI VirtualResource ?RET:24
        CFI Resource ?BRET_EXT:8
        CFI VirtualResource ?RET_HIGH:8, ?RET_LOW:8
        CFI ResourceParts PSP16 PSPH, PSPL
        CFI ResourceParts XSP16 XSPH, XSPL
        CFI ResourceParts ?RET ?BRET_EXT, ?RET_HIGH, ?RET_LOW
        CFI EndNames cfiNames0
        
        CFI Common cfiCommon0 Using cfiNames0
        CFI CodeAlign 1
        CFI DataAlign -1
        CFI ReturnAddress ?RET CODE
        CFI CFA_DOVERLAY Used
        CFI CFA_IOVERLAY Used
        CFI CFA_SP SP+-3
        CFI CFA_PSP16 PSP16+0
        CFI CFA_XSP16 XSP16+0
        CFI `PSW.CY` SameValue
        CFI `B.BR0` SameValue
        CFI `B.BR1` SameValue
        CFI `B.BR2` SameValue
        CFI `B.BR3` SameValue
        CFI `B.BR4` SameValue
        CFI `B.BR5` SameValue
        CFI `B.BR6` SameValue
        CFI `B.BR7` SameValue
        CFI `VB.BR8` SameValue
        CFI `VB.BR9` SameValue
        CFI `VB.BR10` SameValue
        CFI `VB.BR11` SameValue
        CFI `VB.BR12` SameValue
        CFI `VB.BR13` SameValue
        CFI `VB.BR14` SameValue
        CFI `VB.BR15` SameValue
        CFI VB SameValue
        CFI B Undefined
        CFI A Undefined
        CFI PSW SameValue
        CFI DPL0 SameValue
        CFI DPH0 SameValue
        CFI R0 Undefined
        CFI R1 Undefined
        CFI R2 Undefined
        CFI R3 Undefined
        CFI R4 Undefined
        CFI R5 Undefined
        CFI R6 SameValue
        CFI R7 SameValue
        CFI V0 SameValue
        CFI V1 SameValue
        CFI V2 SameValue
        CFI V3 SameValue
        CFI V4 SameValue
        CFI V5 SameValue
        CFI V6 SameValue
        CFI V7 SameValue
        CFI V8 SameValue
        CFI V9 SameValue
        CFI V10 SameValue
        CFI V11 SameValue
        CFI V12 SameValue
        CFI V13 SameValue
        CFI V14 SameValue
        CFI V15 SameValue
        CFI PSPH Undefined
        CFI PSPL Undefined
        CFI XSPH Undefined
        CFI XSPL Undefined
        CFI ?RET Concat
        CFI ?BRET_EXT Frame(CFA_SP, 3)
        CFI ?RET_HIGH Frame(CFA_SP, 2)
        CFI ?RET_LOW Frame(CFA_SP, 1)
        CFI EndCommon cfiCommon0
        
        
        CFI Common cfiCommon1 Using cfiNames0
        CFI CodeAlign 1
        CFI DataAlign -1
        CFI ReturnAddress ?RET CODE
        CFI CFA_DOVERLAY Used
        CFI CFA_IOVERLAY Used
        CFI CFA_SP SP+-2
        CFI CFA_PSP16 PSP16+0
        CFI CFA_XSP16 XSP16+0
        CFI `PSW.CY` SameValue
        CFI `B.BR0` SameValue
        CFI `B.BR1` SameValue
        CFI `B.BR2` SameValue
        CFI `B.BR3` SameValue
        CFI `B.BR4` SameValue
        CFI `B.BR5` SameValue
        CFI `B.BR6` SameValue
        CFI `B.BR7` SameValue
        CFI `VB.BR8` SameValue
        CFI `VB.BR9` SameValue
        CFI `VB.BR10` SameValue
        CFI `VB.BR11` SameValue
        CFI `VB.BR12` SameValue
        CFI `VB.BR13` SameValue
        CFI `VB.BR14` SameValue
        CFI `VB.BR15` SameValue
        CFI VB SameValue
        CFI B SameValue
        CFI A SameValue
        CFI PSW SameValue
        CFI DPL0 SameValue
        CFI DPH0 SameValue
        CFI R0 SameValue
        CFI R1 SameValue
        CFI R2 SameValue
        CFI R3 SameValue
        CFI R4 SameValue
        CFI R5 SameValue
        CFI R6 SameValue
        CFI R7 SameValue
        CFI V0 SameValue
        CFI V1 SameValue
        CFI V2 SameValue
        CFI V3 SameValue
        CFI V4 SameValue
        CFI V5 SameValue
        CFI V6 SameValue
        CFI V7 SameValue
        CFI V8 SameValue
        CFI V9 SameValue
        CFI V10 SameValue
        CFI V11 SameValue
        CFI V12 SameValue
        CFI V13 SameValue
        CFI V14 SameValue
        CFI V15 SameValue
        CFI PSPH Undefined
        CFI PSPL Undefined
        CFI XSPH Undefined
        CFI XSPL Undefined
        CFI ?RET Concat
        CFI ?BRET_EXT SameValue
        CFI ?RET_HIGH Frame(CFA_SP, 2)
        CFI ?RET_LOW Frame(CFA_SP, 1)
        CFI EndCommon cfiCommon1
        
Delay_ms            SYMBOL "Delay_ms"
HalLcdWriteString   SYMBOL "HalLcdWriteString"
HalUARTWrite        SYMBOL "HalUARTWrite"
strstr              SYMBOL "strstr"
??Delay_ms?relay    SYMBOL "?relay", Delay_ms
??HalLcdWriteString?relay SYMBOL "?relay", HalLcdWriteString
??HalUARTWrite?relay SYMBOL "?relay", HalUARTWrite
??strstr?relay      SYMBOL "?relay", strstr
Connect_Wifi        SYMBOL "Connect_Wifi"
??Connect_Wifi?relay SYMBOL "?relay", Connect_Wifi
Init_ESP8266        SYMBOL "Init_ESP8266"
??Init_ESP8266?relay SYMBOL "?relay", Init_ESP8266
Init_MUX            SYMBOL "Init_MUX"
??Init_MUX?relay    SYMBOL "?relay", Init_MUX
Init_Server         SYMBOL "Init_Server"
??Init_Server?relay SYMBOL "?relay", Init_Server
SetWifi             SYMBOL "SetWifi"
??SetWifi?relay     SYMBOL "?relay", SetWifi
Wifi_Rst            SYMBOL "Wifi_Rst"
??Wifi_Rst?relay    SYMBOL "?relay", Wifi_Rst
clearBuff           SYMBOL "clearBuff"
??clearBuff?relay   SYMBOL "?relay", clearBuff
dispIGTState        SYMBOL "dispIGTState"
??dispIGTState?relay SYMBOL "?relay", dispIGTState

        EXTERN Delay_ms
        FUNCTION Delay_ms,0202H
        ARGFRAME ISTACK, 2, STACK
        ARGFRAME PSTACK, 0, STACK
        ARGFRAME XSTACK, 10, STACK
        ARGFRAME IOVERLAY, 0, STATIC
        ARGFRAME DOVERLAY, 0, STATIC
        EXTERN HalLcdWriteString
        FUNCTION HalLcdWriteString,0202H
        ARGFRAME ISTACK, 2, STACK
        ARGFRAME PSTACK, 0, STACK
        ARGFRAME XSTACK, 10, STACK
        ARGFRAME IOVERLAY, 0, STATIC
        ARGFRAME DOVERLAY, 0, STATIC
        EXTERN HalUARTWrite
        FUNCTION HalUARTWrite,0202H
        ARGFRAME ISTACK, 2, STACK
        ARGFRAME PSTACK, 0, STACK
        ARGFRAME XSTACK, 10, STACK
        ARGFRAME IOVERLAY, 0, STATIC
        ARGFRAME DOVERLAY, 0, STATIC
        EXTERN strstr
        FUNCTION strstr,010202H
        ARGFRAME ISTACK, 0, STACK
        ARGFRAME PSTACK, 0, STACK
        ARGFRAME XSTACK, 10, STACK
        ARGFRAME IOVERLAY, 0, STATIC
        ARGFRAME DOVERLAY, 0, STATIC
        EXTERN ??Delay_ms?relay
        FUNCTION ??Delay_ms?relay,00H
        EXTERN ??HalLcdWriteString?relay
        FUNCTION ??HalLcdWriteString?relay,00H
        EXTERN ??HalUARTWrite?relay
        FUNCTION ??HalUARTWrite?relay,00H
        EXTERN ??strstr?relay
        FUNCTION ??strstr?relay,00H
        EXTERN Recdata
        EXTERN jj

// H:\ZigBee\code\WiFi_ZigBee\Projects\zstack\Utilities\SerialApp\Source\WIFI.C
//    1 #include <ioCC2530.h>

        ASEGN SFR_AN:DATA:NOROOT,080H
// union <unnamed> volatile __sfr _A_P0
_A_P0:
        DATA8
        DS 1

        ASEGN SFR_AN:DATA:NOROOT,0fdH
// unsigned char volatile __sfr P0DIR
P0DIR:
        DATA8
        DS 1
//    2 #include "OnBoard.h"
//    3 #include <stdio.h>
//    4 #include <string.h>
//    5 
//    6 #include "AF.h"
//    7 #include "OnBoard.h"
//    8 #include "OSAL_Tasks.h"
//    9 #include "SerialApp.h"
//   10 #include "ZDApp.h"
//   11 #include "ZDObject.h"
//   12 #include "ZDProfile.h"
//   13 
//   14 #include "hal_drivers.h"
//   15 #include "hal_key.h"
//   16 //#if defined ( LCD_SUPPORTED )
//   17 #include "hal_lcd.h"
//   18 //#endif
//   19 #include "hal_led.h"
//   20 #include "hal_uart.h"
//   21 
//   22 #include "DHT11.h"
//   23 #include "nwk_globals.h"
//   24 #include "WIFI.H"
//   25 
//   26 #include "SerialApp.h"
//   27 
//   28 //函数
//   29 void clearBuff(void);
//   30 void SetWifi(void);
//   31 void dispIGTState(void);
//   32 void Init_ESP8266(void);
//   33 void Wifi_Rst(void);
//   34 void Connect_Wifi(void);
//   35 void Init_MUX(void);
//   36 void Init_Server(void);
//   37 int Send_Wifi_DATA(char *str, int len);
//   38 
//   39 void Init_Wifi(void);
//   40 
//   41 //命令
//   42 #define AT_C      "AT\r\n"
//   43 #define MUX_C     "AT+CIPMUX=1\r\n"
//   44 #define SERVER_C  "AT+CIPSERVER=1,5000\r\n"
//   45 #define RST_C "AT+RST\r\n"
//   46 
//   47 //收到数据判断
//   48 #define Rev_F "ESP" 
//   49 
//   50 
//   51 #define Rev_TUL "UNLINX"
//   52 #define Rev_TLI "LINK"
//   53 #define Rev_GD "GETDATA"
//   54 #define Rev_TUL1 "Unlink"
//   55 
//   56 //////////////////////////
//   57 #define IGT P0_6       // P0.6口控制IGT
//   58 
//   59 /****************************************************************************
//   60 * 名    称: clearBuff()
//   61 * 功    能: 清空接收缓冲区函数
//   62 * 入口参数: 无
//   63 * 出口参数: 无
//   64 ****************************************************************************/
//   65 

        RSEG BANKED_CODE:CODE:NOROOT(0)
//   66 void clearBuff(void)
clearBuff:
        CFI Block cfiBlock0 Using cfiCommon0
        CFI Function clearBuff
        CODE
//   67 {
        PUSH    DPL
        CFI DPL0 Frame(CFA_SP, 4)
        CFI CFA_SP SP+-4
        PUSH    DPH
        CFI DPH0 Frame(CFA_SP, 5)
        CFI CFA_SP SP+-5
        ; Saved register size: 2
        ; Auto size: 0
//   68   for(jj=0;jj<128;jj++)
        MOV     DPTR,#jj
        CLR     A
        MOVX    @DPTR,A
//   69   {
//   70     Recdata[jj]=0x00;
        MOV     DPTR,#Recdata
        MOV     R0,#-0x80
??clearBuff_0:
        MOVX    @DPTR,A
        INC     DPTR
        DJNZ    R0,??clearBuff_0
//   71   }
//   72   jj=0;
        MOV     DPTR,#jj
        MOVX    @DPTR,A
//   73 }
        SJMP    ?Subroutine0
        CFI EndBlock cfiBlock0
//   74 
//   75 /****************************************************************************
//   76 * 名    称: SetWifi()
//   77 * 功    能: 设置LED灯相应的IO口
//   78 * 入口参数: 无
//   79 * 出口参数: 无
//   80 ****************************************************************************/

        RSEG BANKED_CODE:CODE:NOROOT(0)
//   81 void SetWifi(void)
SetWifi:
        CFI Block cfiBlock1 Using cfiCommon0
        CFI Function SetWifi
        CODE
//   82 {
        FUNCALL SetWifi, Delay_ms
        LOCFRAME ISTACK, 2, STACK
        LOCFRAME PSTACK, 0, STACK
        LOCFRAME XSTACK, 0, STACK
        LOCFRAME IOVERLAY, 0, STATIC
        LOCFRAME DOVERLAY, 0, STATIC
        ARGFRAME ISTACK, 2, STACK
        ARGFRAME PSTACK, 0, STACK
        ARGFRAME XSTACK, 0, STACK
        ARGFRAME IOVERLAY, 0, STATIC
        ARGFRAME DOVERLAY, 0, STATIC
        PUSH    DPL
        CFI DPL0 Frame(CFA_SP, 4)
        CFI CFA_SP SP+-4
        PUSH    DPH
        CFI DPH0 Frame(CFA_SP, 5)
        CFI CFA_SP SP+-5
        ; Saved register size: 2
        ; Auto size: 0
//   83   P0DIR |= 0x40;           //P0.6定义为输出
        ORL     0xfd,#0x40
//   84   IGT = 1;                 //高电平复位
        SETB    0x80.6
//   85   Delay_ms(100);
        ; Setup parameters for call to function Delay_ms
        MOV     R2,#0x64
        MOV     R3,#0x0
        LCALL   ??Delay_ms?relay
//   86   IGT = 0;                 //低电平工作
        CLR     0x80.6
//   87 }
        SJMP    ?Subroutine0
        CFI EndBlock cfiBlock1
        REQUIRE P0DIR
        REQUIRE _A_P0
//   88 
//   89 
//   90 /****************************************************************************
//   91 * 名    称: dispIGTState()
//   92 * 功    能: 检测到wifi模块的启动或者停止
//   93 * 入口参数: 无
//   94 * 出口参数: 无
//   95 ****************************************************************************/

        RSEG BANKED_CODE:CODE:NOROOT(0)
//   96 void dispIGTState(void)
dispIGTState:
        CFI Block cfiBlock2 Using cfiCommon0
        CFI Function dispIGTState
        CODE
//   97 {
        FUNCALL dispIGTState, HalLcdWriteString
        LOCFRAME ISTACK, 2, STACK
        LOCFRAME PSTACK, 0, STACK
        LOCFRAME XSTACK, 0, STACK
        LOCFRAME IOVERLAY, 0, STATIC
        LOCFRAME DOVERLAY, 0, STATIC
        ARGFRAME ISTACK, 2, STACK
        ARGFRAME PSTACK, 0, STACK
        ARGFRAME XSTACK, 0, STACK
        ARGFRAME IOVERLAY, 0, STATIC
        ARGFRAME DOVERLAY, 0, STATIC
        FUNCALL dispIGTState, HalLcdWriteString
        LOCFRAME ISTACK, 2, STACK
        LOCFRAME PSTACK, 0, STACK
        LOCFRAME XSTACK, 0, STACK
        LOCFRAME IOVERLAY, 0, STATIC
        LOCFRAME DOVERLAY, 0, STATIC
        ARGFRAME ISTACK, 2, STACK
        ARGFRAME PSTACK, 0, STACK
        ARGFRAME XSTACK, 0, STACK
        ARGFRAME IOVERLAY, 0, STATIC
        ARGFRAME DOVERLAY, 0, STATIC
        PUSH    DPL
        CFI DPL0 Frame(CFA_SP, 4)
        CFI CFA_SP SP+-4
        PUSH    DPH
        CFI DPH0 Frame(CFA_SP, 5)
        CFI CFA_SP SP+-5
        ; Saved register size: 2
        ; Auto size: 0
//   98   if(IGT>0) //监测WIFI模块复位管脚
        MOV     C,0x80.6
        MOV     R1,#0x2
        JNC     ??dispIGTState_0
//   99   {
//  100      HalLcdWriteString( "IGTH", HAL_LCD_LINE_2 );
        ; Setup parameters for call to function HalLcdWriteString
        MOV     R2,#`?<Constant "IGTH">` & 0xff
        MOV     R3,#(`?<Constant "IGTH">` >> 8) & 0xff
        SJMP    ??dispIGTState_1
//  101   }
//  102   else
//  103   {
//  104     HalLcdWriteString( "IGTL", HAL_LCD_LINE_2 ); 
??dispIGTState_0:
        ; Setup parameters for call to function HalLcdWriteString
        MOV     R2,#`?<Constant "IGTL">` & 0xff
        MOV     R3,#(`?<Constant "IGTL">` >> 8) & 0xff
??dispIGTState_1:
        LCALL   ??HalLcdWriteString?relay
        CFI EndBlock cfiBlock2
//  105   }                
//  106 }
        REQUIRE ?Subroutine0
        REQUIRE _A_P0
        ; // Fall through to label ?Subroutine0

        RSEG BANKED_CODE:CODE:NOROOT(0)
?Subroutine0:
        CFI Block cfiBlock3 Using cfiCommon0
        CFI NoFunction
        CFI CFA_SP SP+-5
        CFI DPL0 Frame(CFA_SP, 4)
        CFI DPH0 Frame(CFA_SP, 5)
        POP     DPH
        CFI CFA_SP SP+-4
        CFI DPH0 SameValue
        POP     DPL
        CFI CFA_SP SP+-3
        CFI DPL0 SameValue
        LJMP    ?BRET
        CFI EndBlock cfiBlock3
//  107 

        RSEG BANKED_CODE:CODE:NOROOT(0)
//  108 void Init_ESP8266(void)
Init_ESP8266:
        CFI Block cfiBlock4 Using cfiCommon0
        CFI Function Init_ESP8266
        CODE
//  109 {
        FUNCALL Init_ESP8266, HalUARTWrite
        LOCFRAME ISTACK, 2, STACK
        LOCFRAME PSTACK, 0, STACK
        LOCFRAME XSTACK, 0, STACK
        LOCFRAME IOVERLAY, 0, STATIC
        LOCFRAME DOVERLAY, 0, STATIC
        ARGFRAME ISTACK, 2, STACK
        ARGFRAME PSTACK, 0, STACK
        ARGFRAME XSTACK, 0, STACK
        ARGFRAME IOVERLAY, 0, STATIC
        ARGFRAME DOVERLAY, 0, STATIC
        PUSH    DPL
        CFI DPL0 Frame(CFA_SP, 4)
        CFI CFA_SP SP+-4
        PUSH    DPH
        CFI DPH0 Frame(CFA_SP, 5)
        CFI CFA_SP SP+-5
        ; Saved register size: 2
        ; Auto size: 0
//  110   HalUARTWrite(0x00, "Init_ESP8266\r\n", strlen("Init_ESP8266\r\n"));
        ; Setup parameters for call to function HalUARTWrite
        MOV     R4,#0xe
        MOV     R5,#0x0
        MOV     R2,#`?<Constant "Init_ESP8266\\r\\n">` & 0xff
        MOV     R3,#(`?<Constant "Init_ESP8266\\r\\n">` >> 8) & 0xff
        MOV     R1,#0x0
        LCALL   ??HalUARTWrite?relay
//  111 }
        SJMP    ?Subroutine0
        CFI EndBlock cfiBlock4
//  112 
//  113 

        RSEG BANKED_CODE:CODE:NOROOT(0)
//  114 void Wifi_Rst(void)
Wifi_Rst:
        CFI Block cfiBlock5 Using cfiCommon0
        CFI Function Wifi_Rst
        CODE
//  115 {
        FUNCALL Wifi_Rst, clearBuff
        LOCFRAME ISTACK, 2, STACK
        LOCFRAME PSTACK, 0, STACK
        LOCFRAME XSTACK, 0, STACK
        LOCFRAME IOVERLAY, 0, STATIC
        LOCFRAME DOVERLAY, 0, STATIC
        ARGFRAME ISTACK, 2, STACK
        ARGFRAME PSTACK, 0, STACK
        ARGFRAME XSTACK, 0, STACK
        ARGFRAME IOVERLAY, 0, STATIC
        ARGFRAME DOVERLAY, 0, STATIC
        FUNCALL Wifi_Rst, HalUARTWrite
        LOCFRAME ISTACK, 2, STACK
        LOCFRAME PSTACK, 0, STACK
        LOCFRAME XSTACK, 0, STACK
        LOCFRAME IOVERLAY, 0, STATIC
        LOCFRAME DOVERLAY, 0, STATIC
        ARGFRAME ISTACK, 2, STACK
        ARGFRAME PSTACK, 0, STACK
        ARGFRAME XSTACK, 0, STACK
        ARGFRAME IOVERLAY, 0, STATIC
        ARGFRAME DOVERLAY, 0, STATIC
        FUNCALL Wifi_Rst, Delay_ms
        LOCFRAME ISTACK, 2, STACK
        LOCFRAME PSTACK, 0, STACK
        LOCFRAME XSTACK, 0, STACK
        LOCFRAME IOVERLAY, 0, STATIC
        LOCFRAME DOVERLAY, 0, STATIC
        ARGFRAME ISTACK, 2, STACK
        ARGFRAME PSTACK, 0, STACK
        ARGFRAME XSTACK, 0, STACK
        ARGFRAME IOVERLAY, 0, STATIC
        ARGFRAME DOVERLAY, 0, STATIC
        PUSH    DPL
        CFI DPL0 Frame(CFA_SP, 4)
        CFI CFA_SP SP+-4
        PUSH    DPH
        CFI DPH0 Frame(CFA_SP, 5)
        CFI CFA_SP SP+-5
        ; Saved register size: 2
        ; Auto size: 0
//  116 
//  117   clearBuff();
        ; Setup parameters for call to function clearBuff
        LCALL   ??clearBuff?relay
//  118   HalUARTWrite(0x00, "AT+RST\r\n", 8);
        ; Setup parameters for call to function HalUARTWrite
        MOV     R4,#0x8
        MOV     R5,#0x0
        MOV     R2,#`?<Constant "AT+RST\\r\\n">` & 0xff
        MOV     R3,#(`?<Constant "AT+RST\\r\\n">` >> 8) & 0xff
        MOV     R1,#0x0
        LCALL   ??HalUARTWrite?relay
//  119  
//  120   Delay_ms(100);
        ; Setup parameters for call to function Delay_ms
        MOV     R2,#0x64
        MOV     R3,#0x0
        LCALL   ??Delay_ms?relay
//  121 /*
//  122   if(strstr((char const *)Recdata,"OK")==NULL)
//  123   {
//  124       HalLcdWriteString( "Wifi Reset....", HAL_LCD_LINE_2 );
//  125        clearBuff();
//  126        Delay_ms(5000);
//  127 
//  128   }
//  129   else
//  130   {
//  131       HalLcdWriteString("Wifi Reset[OK]", HAL_LCD_LINE_2);
//  132        clearBuff();
//  133        Delay_ms(5000);
//  134   }
//  135       */
//  136 }
        SJMP    ?Subroutine0
        CFI EndBlock cfiBlock5
//  137 
//  138 

        RSEG BANKED_CODE:CODE:NOROOT(0)
//  139 void Connect_Wifi(void)
Connect_Wifi:
        CFI Block cfiBlock6 Using cfiCommon0
        CFI Function Connect_Wifi
        CODE
//  140 {
        FUNCALL Connect_Wifi, clearBuff
        LOCFRAME ISTACK, 0, STACK
        LOCFRAME PSTACK, 0, STACK
        LOCFRAME XSTACK, 10, STACK
        LOCFRAME IOVERLAY, 0, STATIC
        LOCFRAME DOVERLAY, 0, STATIC
        ARGFRAME ISTACK, 0, STACK
        ARGFRAME PSTACK, 0, STACK
        ARGFRAME XSTACK, 10, STACK
        ARGFRAME IOVERLAY, 0, STATIC
        ARGFRAME DOVERLAY, 0, STATIC
        FUNCALL Connect_Wifi, HalUARTWrite
        LOCFRAME ISTACK, 0, STACK
        LOCFRAME PSTACK, 0, STACK
        LOCFRAME XSTACK, 10, STACK
        LOCFRAME IOVERLAY, 0, STATIC
        LOCFRAME DOVERLAY, 0, STATIC
        ARGFRAME ISTACK, 0, STACK
        ARGFRAME PSTACK, 0, STACK
        ARGFRAME XSTACK, 10, STACK
        ARGFRAME IOVERLAY, 0, STATIC
        ARGFRAME DOVERLAY, 0, STATIC
        FUNCALL Connect_Wifi, Delay_ms
        LOCFRAME ISTACK, 0, STACK
        LOCFRAME PSTACK, 0, STACK
        LOCFRAME XSTACK, 10, STACK
        LOCFRAME IOVERLAY, 0, STATIC
        LOCFRAME DOVERLAY, 0, STATIC
        ARGFRAME ISTACK, 0, STACK
        ARGFRAME PSTACK, 0, STACK
        ARGFRAME XSTACK, 10, STACK
        ARGFRAME IOVERLAY, 0, STATIC
        ARGFRAME DOVERLAY, 0, STATIC
        FUNCALL Connect_Wifi, HalLcdWriteString
        LOCFRAME ISTACK, 0, STACK
        LOCFRAME PSTACK, 0, STACK
        LOCFRAME XSTACK, 10, STACK
        LOCFRAME IOVERLAY, 0, STATIC
        LOCFRAME DOVERLAY, 0, STATIC
        ARGFRAME ISTACK, 0, STACK
        ARGFRAME PSTACK, 0, STACK
        ARGFRAME XSTACK, 10, STACK
        ARGFRAME IOVERLAY, 0, STATIC
        ARGFRAME DOVERLAY, 0, STATIC
        FUNCALL Connect_Wifi, clearBuff
        LOCFRAME ISTACK, 0, STACK
        LOCFRAME PSTACK, 0, STACK
        LOCFRAME XSTACK, 10, STACK
        LOCFRAME IOVERLAY, 0, STATIC
        LOCFRAME DOVERLAY, 0, STATIC
        ARGFRAME ISTACK, 0, STACK
        ARGFRAME PSTACK, 0, STACK
        ARGFRAME XSTACK, 10, STACK
        ARGFRAME IOVERLAY, 0, STATIC
        ARGFRAME DOVERLAY, 0, STATIC
        FUNCALL Connect_Wifi, HalUARTWrite
        LOCFRAME ISTACK, 0, STACK
        LOCFRAME PSTACK, 0, STACK
        LOCFRAME XSTACK, 10, STACK
        LOCFRAME IOVERLAY, 0, STATIC
        LOCFRAME DOVERLAY, 0, STATIC
        ARGFRAME ISTACK, 0, STACK
        ARGFRAME PSTACK, 0, STACK
        ARGFRAME XSTACK, 10, STACK
        ARGFRAME IOVERLAY, 0, STATIC
        ARGFRAME DOVERLAY, 0, STATIC
        FUNCALL Connect_Wifi, strstr
        LOCFRAME ISTACK, 0, STACK
        LOCFRAME PSTACK, 0, STACK
        LOCFRAME XSTACK, 10, STACK
        LOCFRAME IOVERLAY, 0, STATIC
        LOCFRAME DOVERLAY, 0, STATIC
        ARGFRAME ISTACK, 0, STACK
        ARGFRAME PSTACK, 0, STACK
        ARGFRAME XSTACK, 10, STACK
        ARGFRAME IOVERLAY, 0, STATIC
        ARGFRAME DOVERLAY, 0, STATIC
        MOV     A,#-0xa
        LCALL   ?BANKED_ENTER_XDATA
        CFI DPH0 load(1, XDATA, add(CFA_XSP16, literal(-1)))
        CFI DPL0 load(1, XDATA, add(CFA_XSP16, literal(-2)))
        CFI ?BRET_EXT load(1, XDATA, add(CFA_XSP16, literal(-3)))
        CFI ?RET_HIGH load(1, XDATA, add(CFA_XSP16, literal(-4)))
        CFI ?RET_LOW load(1, XDATA, add(CFA_XSP16, literal(-5)))
        CFI R7 load(1, XDATA, add(CFA_XSP16, literal(-6)))
        CFI V1 load(1, XDATA, add(CFA_XSP16, literal(-7)))
        CFI V0 load(1, XDATA, add(CFA_XSP16, literal(-8)))
        CFI VB load(1, XDATA, add(CFA_XSP16, literal(-9)))
        CFI R6 load(1, XDATA, add(CFA_XSP16, literal(-10)))
        CFI CFA_SP SP+0
        CFI CFA_XSP16 add(XSP16, 10)
        ; Saved register size: 10
        ; Auto size: 0
//  141   
//  142   clearBuff();
        ; Setup parameters for call to function clearBuff
        LCALL   ?Subroutine3 & 0xFFFF
//  143 //  Print_Str(AT_C);
//  144   HalUARTWrite (0x00, AT_C, strlen(AT_C));
//  145    Delay_ms(50);
??CrossCallReturnLabel_2:
        ; Setup parameters for call to function Delay_ms
        MOV     R2,#0x32
        MOV     R3,#0x0
        LCALL   ??Delay_ms?relay
        SJMP    ??CrossCallReturnLabel_3
//  146  
//  147  /* 
//  148   if(strstr((char const *)Recdata,"OK")==NULL)
//  149   {
//  150       HalLcdWriteString( "connect.......", HAL_LCD_LINE_2 );
//  151       Delay_ms(500);
//  152   }
//  153   else
//  154   {
//  155       HalLcdWriteString("connect...[OK]", HAL_LCD_LINE_2);
//  156       Delay_ms(500);
//  157   } */
//  158   while(strstr((char const *)Recdata,"OK")==NULL)
//  159   {
//  160 //    LED1=1;
//  161 //    DelayMS(500);
//  162 //    LED1=0;
//  163 //    LCD_P8x16Str(8,2,"connect.......");
//  164     HalLcdWriteString( "connect.......", HAL_LCD_LINE_2 );
??Connect_Wifi_0:
        ; Setup parameters for call to function HalLcdWriteString
        MOV     R1,#0x2
        MOV     R2,#`?<Constant "connect.......">` & 0xff
        MOV     R3,#(`?<Constant "connect.......">` >> 8) & 0xff
        LCALL   ??HalLcdWriteString?relay
//  165     clearBuff();
        ; Setup parameters for call to function clearBuff
        LCALL   ?Subroutine3 & 0xFFFF
//  166  //   Print_Str(AT_C);
//  167     HalUARTWrite (0x00, AT_C, strlen(AT_C));
//  168  //   DelayMS(500);
//  169   } 
??CrossCallReturnLabel_3:
        ; Setup parameters for call to function strstr
        LCALL   ?Subroutine4 & 0xFFFF
??CrossCallReturnLabel_4:
        JZ      ??Connect_Wifi_0
//  170  // LCD_P8x16Str(8,2,"connect...[OK]");
//  171 //  HalLcdWriteString( "connect...[OK]", HAL_LCD_LINE_2 );
//  172  // LED1=0;
//  173   
//  174 }
        SJMP    ??Subroutine5_0
        CFI EndBlock cfiBlock6

        RSEG BANKED_CODE:CODE:NOROOT(0)
?Subroutine3:
        CFI Block cfiCond7 Using cfiCommon0
        CFI NoFunction
        CFI Conditional ??CrossCallReturnLabel_2
        CFI R6 load(1, XDATA, add(CFA_XSP16, literal(-10)))
        CFI VB load(1, XDATA, add(CFA_XSP16, literal(-9)))
        CFI V0 load(1, XDATA, add(CFA_XSP16, literal(-8)))
        CFI V1 load(1, XDATA, add(CFA_XSP16, literal(-7)))
        CFI R7 load(1, XDATA, add(CFA_XSP16, literal(-6)))
        CFI ?RET_LOW load(1, XDATA, add(CFA_XSP16, literal(-5)))
        CFI ?RET_HIGH load(1, XDATA, add(CFA_XSP16, literal(-4)))
        CFI ?BRET_EXT load(1, XDATA, add(CFA_XSP16, literal(-3)))
        CFI DPL0 load(1, XDATA, add(CFA_XSP16, literal(-2)))
        CFI DPH0 load(1, XDATA, add(CFA_XSP16, literal(-1)))
        CFI CFA_SP SP+0
        CFI CFA_XSP16 add(XSP16, 10)
        CFI Block cfiCond8 Using cfiCommon0
        CFI (cfiCond8) NoFunction
        CFI (cfiCond8) Conditional ??CrossCallReturnLabel_3
        CFI (cfiCond8) R6 load(1, XDATA, add(CFA_XSP16, literal(-10)))
        CFI (cfiCond8) VB load(1, XDATA, add(CFA_XSP16, literal(-9)))
        CFI (cfiCond8) V0 load(1, XDATA, add(CFA_XSP16, literal(-8)))
        CFI (cfiCond8) V1 load(1, XDATA, add(CFA_XSP16, literal(-7)))
        CFI (cfiCond8) R7 load(1, XDATA, add(CFA_XSP16, literal(-6)))
        CFI (cfiCond8) ?RET_LOW load(1, XDATA, add(CFA_XSP16, literal(-5)))
        CFI (cfiCond8) ?RET_HIGH load(1, XDATA, add(CFA_XSP16, literal(-4)))
        CFI (cfiCond8) ?BRET_EXT load(1, XDATA, add(CFA_XSP16, literal(-3)))
        CFI (cfiCond8) DPL0 load(1, XDATA, add(CFA_XSP16, literal(-2)))
        CFI (cfiCond8) DPH0 load(1, XDATA, add(CFA_XSP16, literal(-1)))
        CFI (cfiCond8) CFA_SP SP+0
        CFI (cfiCond8) CFA_XSP16 add(XSP16, 10)
        CFI Block cfiPicker9 Using cfiCommon1
        CFI (cfiPicker9) NoFunction
        CFI (cfiPicker9) Picker
        LCALL   ??clearBuff?relay
        ; Setup parameters for call to function HalUARTWrite
        ; Setup parameters for call to function HalUARTWrite
        MOV     R4,#0x4
        MOV     R5,#0x0
        MOV     R2,#`?<Constant "AT\\r\\n">` & 0xff
        MOV     R3,#(`?<Constant "AT\\r\\n">` >> 8) & 0xff
        MOV     R1,#0x0
        LCALL   ??HalUARTWrite?relay
        RET
        CFI EndBlock cfiCond7
        CFI EndBlock cfiCond8
        CFI EndBlock cfiPicker9
//  175 
//  176 
//  177 

        RSEG BANKED_CODE:CODE:NOROOT(0)
//  178 void Init_MUX(void)
Init_MUX:
        CFI Block cfiBlock10 Using cfiCommon0
        CFI Function Init_MUX
        CODE
//  179 { 
        FUNCALL Init_MUX, clearBuff
        LOCFRAME ISTACK, 0, STACK
        LOCFRAME PSTACK, 0, STACK
        LOCFRAME XSTACK, 10, STACK
        LOCFRAME IOVERLAY, 0, STATIC
        LOCFRAME DOVERLAY, 0, STATIC
        ARGFRAME ISTACK, 0, STACK
        ARGFRAME PSTACK, 0, STACK
        ARGFRAME XSTACK, 10, STACK
        ARGFRAME IOVERLAY, 0, STATIC
        ARGFRAME DOVERLAY, 0, STATIC
        FUNCALL Init_MUX, HalUARTWrite
        LOCFRAME ISTACK, 0, STACK
        LOCFRAME PSTACK, 0, STACK
        LOCFRAME XSTACK, 10, STACK
        LOCFRAME IOVERLAY, 0, STATIC
        LOCFRAME DOVERLAY, 0, STATIC
        ARGFRAME ISTACK, 0, STACK
        ARGFRAME PSTACK, 0, STACK
        ARGFRAME XSTACK, 10, STACK
        ARGFRAME IOVERLAY, 0, STATIC
        ARGFRAME DOVERLAY, 0, STATIC
        FUNCALL Init_MUX, Delay_ms
        LOCFRAME ISTACK, 0, STACK
        LOCFRAME PSTACK, 0, STACK
        LOCFRAME XSTACK, 10, STACK
        LOCFRAME IOVERLAY, 0, STATIC
        LOCFRAME DOVERLAY, 0, STATIC
        ARGFRAME ISTACK, 0, STACK
        ARGFRAME PSTACK, 0, STACK
        ARGFRAME XSTACK, 10, STACK
        ARGFRAME IOVERLAY, 0, STATIC
        ARGFRAME DOVERLAY, 0, STATIC
        FUNCALL Init_MUX, strstr
        LOCFRAME ISTACK, 0, STACK
        LOCFRAME PSTACK, 0, STACK
        LOCFRAME XSTACK, 10, STACK
        LOCFRAME IOVERLAY, 0, STATIC
        LOCFRAME DOVERLAY, 0, STATIC
        ARGFRAME ISTACK, 0, STACK
        ARGFRAME PSTACK, 0, STACK
        ARGFRAME XSTACK, 10, STACK
        ARGFRAME IOVERLAY, 0, STATIC
        ARGFRAME DOVERLAY, 0, STATIC
        FUNCALL Init_MUX, HalLcdWriteString
        LOCFRAME ISTACK, 0, STACK
        LOCFRAME PSTACK, 0, STACK
        LOCFRAME XSTACK, 10, STACK
        LOCFRAME IOVERLAY, 0, STATIC
        LOCFRAME DOVERLAY, 0, STATIC
        ARGFRAME ISTACK, 0, STACK
        ARGFRAME PSTACK, 0, STACK
        ARGFRAME XSTACK, 10, STACK
        ARGFRAME IOVERLAY, 0, STATIC
        ARGFRAME DOVERLAY, 0, STATIC
        FUNCALL Init_MUX, Delay_ms
        LOCFRAME ISTACK, 0, STACK
        LOCFRAME PSTACK, 0, STACK
        LOCFRAME XSTACK, 10, STACK
        LOCFRAME IOVERLAY, 0, STATIC
        LOCFRAME DOVERLAY, 0, STATIC
        ARGFRAME ISTACK, 0, STACK
        ARGFRAME PSTACK, 0, STACK
        ARGFRAME XSTACK, 10, STACK
        ARGFRAME IOVERLAY, 0, STATIC
        ARGFRAME DOVERLAY, 0, STATIC
        FUNCALL Init_MUX, HalLcdWriteString
        LOCFRAME ISTACK, 0, STACK
        LOCFRAME PSTACK, 0, STACK
        LOCFRAME XSTACK, 10, STACK
        LOCFRAME IOVERLAY, 0, STATIC
        LOCFRAME DOVERLAY, 0, STATIC
        ARGFRAME ISTACK, 0, STACK
        ARGFRAME PSTACK, 0, STACK
        ARGFRAME XSTACK, 10, STACK
        ARGFRAME IOVERLAY, 0, STATIC
        ARGFRAME DOVERLAY, 0, STATIC
        FUNCALL Init_MUX, Delay_ms
        LOCFRAME ISTACK, 0, STACK
        LOCFRAME PSTACK, 0, STACK
        LOCFRAME XSTACK, 10, STACK
        LOCFRAME IOVERLAY, 0, STATIC
        LOCFRAME DOVERLAY, 0, STATIC
        ARGFRAME ISTACK, 0, STACK
        ARGFRAME PSTACK, 0, STACK
        ARGFRAME XSTACK, 10, STACK
        ARGFRAME IOVERLAY, 0, STATIC
        ARGFRAME DOVERLAY, 0, STATIC
        MOV     A,#-0xa
        LCALL   ?BANKED_ENTER_XDATA
        CFI DPH0 load(1, XDATA, add(CFA_XSP16, literal(-1)))
        CFI DPL0 load(1, XDATA, add(CFA_XSP16, literal(-2)))
        CFI ?BRET_EXT load(1, XDATA, add(CFA_XSP16, literal(-3)))
        CFI ?RET_HIGH load(1, XDATA, add(CFA_XSP16, literal(-4)))
        CFI ?RET_LOW load(1, XDATA, add(CFA_XSP16, literal(-5)))
        CFI R7 load(1, XDATA, add(CFA_XSP16, literal(-6)))
        CFI V1 load(1, XDATA, add(CFA_XSP16, literal(-7)))
        CFI V0 load(1, XDATA, add(CFA_XSP16, literal(-8)))
        CFI VB load(1, XDATA, add(CFA_XSP16, literal(-9)))
        CFI R6 load(1, XDATA, add(CFA_XSP16, literal(-10)))
        CFI CFA_SP SP+0
        CFI CFA_XSP16 add(XSP16, 10)
        ; Saved register size: 10
        ; Auto size: 0
//  180   clearBuff();
        ; Setup parameters for call to function clearBuff
        LCALL   ??clearBuff?relay
//  181 //  Print_Str(MUX_C);
//  182   HalUARTWrite (0x00, MUX_C, strlen(MUX_C));
        ; Setup parameters for call to function HalUARTWrite
        MOV     R4,#0xd
        MOV     R5,#0x0
        MOV     R2,#`?<Constant "AT+CIPMUX=1\\r\\n">` & 0xff
        MOV     R3,#(`?<Constant "AT+CIPMUX=1\\r\\n">` >> 8) & 0xff
        LCALL   ?Subroutine2 & 0xFFFF
//  183    Delay_ms(50);
//  184   
//  185     if(strstr((char const *)Recdata,"OK")==NULL)
??CrossCallReturnLabel_0:
        JNZ     ??Init_MUX_0
//  186   {
//  187       HalLcdWriteString( "Init MUX.......", HAL_LCD_LINE_2 );
        ; Setup parameters for call to function HalLcdWriteString
        MOV     R2,#`?<Constant "Init MUX.......">` & 0xff
        MOV     R3,#(`?<Constant "Init MUX.......">` >> 8) & 0xff
        SJMP    ??Init_MUX_1
//  188       Delay_ms(500);
//  189   }
//  190   else
//  191   {
//  192       HalLcdWriteString("Init MUX...[OK]", HAL_LCD_LINE_2);
??Init_MUX_0:
        ; Setup parameters for call to function HalLcdWriteString
        MOV     R2,#`?<Constant "Init MUX...[OK]">` & 0xff
        MOV     R3,#(`?<Constant "Init MUX...[OK]">` >> 8) & 0xff
        CFI EndBlock cfiBlock10
//  193       Delay_ms(500);
//  194   }
??Init_MUX_1:
        REQUIRE ?Subroutine1
        ; // Fall through to label ?Subroutine1
//  195 /*  
//  196   while(strstr((char const *)Recdata,"OK")==NULL)
//  197   {
//  198 //    LED2=1;
//  199     DelayMS(500);
//  200  //   LED2=0;
//  201  //   LCD_P8x16Str(8,2,"Init MUX......");
//  202     HalLcdWriteString( "Init MUX......", HAL_LCD_LINE_2 );
//  203     clearBuff();
//  204 //    Print_Str(MUX_C);
//  205     HalUARTWrite (0x00, MUX_C, strlen(MUX_C));
//  206     DelayMS(500);
//  207   }
//  208 //  LCD_P8x16Str(8,2,"Init MUX..[OK]");
//  209   HalLcdWriteString( "Init MUX..[OK]", HAL_LCD_LINE_2 );
//  210 //  LED2=0;
//  211   */
//  212 }

        RSEG BANKED_CODE:CODE:NOROOT(0)
?Subroutine1:
        CFI Block cfiBlock11 Using cfiCommon0
        CFI NoFunction
        CFI CFA_SP SP+0
        CFI CFA_XSP16 add(XSP16, 10)
        CFI VB load(1, XDATA, add(CFA_XSP16, literal(-9)))
        CFI DPL0 load(1, XDATA, add(CFA_XSP16, literal(-2)))
        CFI DPH0 load(1, XDATA, add(CFA_XSP16, literal(-1)))
        CFI R6 load(1, XDATA, add(CFA_XSP16, literal(-10)))
        CFI R7 load(1, XDATA, add(CFA_XSP16, literal(-6)))
        CFI V0 load(1, XDATA, add(CFA_XSP16, literal(-8)))
        CFI V1 load(1, XDATA, add(CFA_XSP16, literal(-7)))
        CFI ?BRET_EXT load(1, XDATA, add(CFA_XSP16, literal(-3)))
        CFI ?RET_HIGH load(1, XDATA, add(CFA_XSP16, literal(-4)))
        CFI ?RET_LOW load(1, XDATA, add(CFA_XSP16, literal(-5)))
        LCALL   ??HalLcdWriteString?relay
        ; Setup parameters for call to function Delay_ms
        ; Setup parameters for call to function Delay_ms
        MOV     R2,#-0xc
        MOV     R3,#0x1
        LCALL   ??Delay_ms?relay
        CFI EndBlock cfiBlock11
        REQUIRE ??Subroutine5_0
        ; // Fall through to label ??Subroutine5_0

        RSEG BANKED_CODE:CODE:NOROOT(0)
??Subroutine5_0:
        CFI Block cfiBlock12 Using cfiCommon0
        CFI NoFunction
        CFI CFA_SP SP+0
        CFI CFA_XSP16 add(XSP16, 10)
        CFI VB load(1, XDATA, add(CFA_XSP16, literal(-9)))
        CFI DPL0 load(1, XDATA, add(CFA_XSP16, literal(-2)))
        CFI DPH0 load(1, XDATA, add(CFA_XSP16, literal(-1)))
        CFI R6 load(1, XDATA, add(CFA_XSP16, literal(-10)))
        CFI R7 load(1, XDATA, add(CFA_XSP16, literal(-6)))
        CFI V0 load(1, XDATA, add(CFA_XSP16, literal(-8)))
        CFI V1 load(1, XDATA, add(CFA_XSP16, literal(-7)))
        CFI ?BRET_EXT load(1, XDATA, add(CFA_XSP16, literal(-3)))
        CFI ?RET_HIGH load(1, XDATA, add(CFA_XSP16, literal(-4)))
        CFI ?RET_LOW load(1, XDATA, add(CFA_XSP16, literal(-5)))
        MOV     R7,#0x2
        LJMP    ?BANKED_LEAVE_XDATA
        CFI EndBlock cfiBlock12
//  213 

        RSEG BANKED_CODE:CODE:NOROOT(0)
//  214 void Init_Server(void)
Init_Server:
        CFI Block cfiBlock13 Using cfiCommon0
        CFI Function Init_Server
        CODE
//  215 {
        FUNCALL Init_Server, clearBuff
        LOCFRAME ISTACK, 0, STACK
        LOCFRAME PSTACK, 0, STACK
        LOCFRAME XSTACK, 10, STACK
        LOCFRAME IOVERLAY, 0, STATIC
        LOCFRAME DOVERLAY, 0, STATIC
        ARGFRAME ISTACK, 0, STACK
        ARGFRAME PSTACK, 0, STACK
        ARGFRAME XSTACK, 10, STACK
        ARGFRAME IOVERLAY, 0, STATIC
        ARGFRAME DOVERLAY, 0, STATIC
        FUNCALL Init_Server, HalUARTWrite
        LOCFRAME ISTACK, 0, STACK
        LOCFRAME PSTACK, 0, STACK
        LOCFRAME XSTACK, 10, STACK
        LOCFRAME IOVERLAY, 0, STATIC
        LOCFRAME DOVERLAY, 0, STATIC
        ARGFRAME ISTACK, 0, STACK
        ARGFRAME PSTACK, 0, STACK
        ARGFRAME XSTACK, 10, STACK
        ARGFRAME IOVERLAY, 0, STATIC
        ARGFRAME DOVERLAY, 0, STATIC
        FUNCALL Init_Server, Delay_ms
        LOCFRAME ISTACK, 0, STACK
        LOCFRAME PSTACK, 0, STACK
        LOCFRAME XSTACK, 10, STACK
        LOCFRAME IOVERLAY, 0, STATIC
        LOCFRAME DOVERLAY, 0, STATIC
        ARGFRAME ISTACK, 0, STACK
        ARGFRAME PSTACK, 0, STACK
        ARGFRAME XSTACK, 10, STACK
        ARGFRAME IOVERLAY, 0, STATIC
        ARGFRAME DOVERLAY, 0, STATIC
        FUNCALL Init_Server, strstr
        LOCFRAME ISTACK, 0, STACK
        LOCFRAME PSTACK, 0, STACK
        LOCFRAME XSTACK, 10, STACK
        LOCFRAME IOVERLAY, 0, STATIC
        LOCFRAME DOVERLAY, 0, STATIC
        ARGFRAME ISTACK, 0, STACK
        ARGFRAME PSTACK, 0, STACK
        ARGFRAME XSTACK, 10, STACK
        ARGFRAME IOVERLAY, 0, STATIC
        ARGFRAME DOVERLAY, 0, STATIC
        FUNCALL Init_Server, HalLcdWriteString
        LOCFRAME ISTACK, 0, STACK
        LOCFRAME PSTACK, 0, STACK
        LOCFRAME XSTACK, 10, STACK
        LOCFRAME IOVERLAY, 0, STATIC
        LOCFRAME DOVERLAY, 0, STATIC
        ARGFRAME ISTACK, 0, STACK
        ARGFRAME PSTACK, 0, STACK
        ARGFRAME XSTACK, 10, STACK
        ARGFRAME IOVERLAY, 0, STATIC
        ARGFRAME DOVERLAY, 0, STATIC
        FUNCALL Init_Server, Delay_ms
        LOCFRAME ISTACK, 0, STACK
        LOCFRAME PSTACK, 0, STACK
        LOCFRAME XSTACK, 10, STACK
        LOCFRAME IOVERLAY, 0, STATIC
        LOCFRAME DOVERLAY, 0, STATIC
        ARGFRAME ISTACK, 0, STACK
        ARGFRAME PSTACK, 0, STACK
        ARGFRAME XSTACK, 10, STACK
        ARGFRAME IOVERLAY, 0, STATIC
        ARGFRAME DOVERLAY, 0, STATIC
        FUNCALL Init_Server, HalLcdWriteString
        LOCFRAME ISTACK, 0, STACK
        LOCFRAME PSTACK, 0, STACK
        LOCFRAME XSTACK, 10, STACK
        LOCFRAME IOVERLAY, 0, STATIC
        LOCFRAME DOVERLAY, 0, STATIC
        ARGFRAME ISTACK, 0, STACK
        ARGFRAME PSTACK, 0, STACK
        ARGFRAME XSTACK, 10, STACK
        ARGFRAME IOVERLAY, 0, STATIC
        ARGFRAME DOVERLAY, 0, STATIC
        FUNCALL Init_Server, Delay_ms
        LOCFRAME ISTACK, 0, STACK
        LOCFRAME PSTACK, 0, STACK
        LOCFRAME XSTACK, 10, STACK
        LOCFRAME IOVERLAY, 0, STATIC
        LOCFRAME DOVERLAY, 0, STATIC
        ARGFRAME ISTACK, 0, STACK
        ARGFRAME PSTACK, 0, STACK
        ARGFRAME XSTACK, 10, STACK
        ARGFRAME IOVERLAY, 0, STATIC
        ARGFRAME DOVERLAY, 0, STATIC
        MOV     A,#-0xa
        LCALL   ?BANKED_ENTER_XDATA
        CFI DPH0 load(1, XDATA, add(CFA_XSP16, literal(-1)))
        CFI DPL0 load(1, XDATA, add(CFA_XSP16, literal(-2)))
        CFI ?BRET_EXT load(1, XDATA, add(CFA_XSP16, literal(-3)))
        CFI ?RET_HIGH load(1, XDATA, add(CFA_XSP16, literal(-4)))
        CFI ?RET_LOW load(1, XDATA, add(CFA_XSP16, literal(-5)))
        CFI R7 load(1, XDATA, add(CFA_XSP16, literal(-6)))
        CFI V1 load(1, XDATA, add(CFA_XSP16, literal(-7)))
        CFI V0 load(1, XDATA, add(CFA_XSP16, literal(-8)))
        CFI VB load(1, XDATA, add(CFA_XSP16, literal(-9)))
        CFI R6 load(1, XDATA, add(CFA_XSP16, literal(-10)))
        CFI CFA_SP SP+0
        CFI CFA_XSP16 add(XSP16, 10)
        ; Saved register size: 10
        ; Auto size: 0
//  216   
//  217   
//  218   clearBuff();
        ; Setup parameters for call to function clearBuff
        LCALL   ??clearBuff?relay
//  219 //  Print_Str(SERVER_C);
//  220   HalUARTWrite (0x00,SERVER_C, strlen(SERVER_C));
        ; Setup parameters for call to function HalUARTWrite
        MOV     R4,#0x15
        MOV     R5,#0x0
        MOV     R2,#`?<Constant "AT+CIPSERVER=1,5000\\r\\n">` & 0xff
        MOV     R3,#(`?<Constant "AT+CIPSERVER=1,5000\\r\\n">` >> 8) & 0xff
        LCALL   ?Subroutine2 & 0xFFFF
//  221    Delay_ms(50);
//  222  
//  223   if(strstr((char const *)Recdata,"OK")==NULL)
??CrossCallReturnLabel_1:
        JNZ     ??Init_Server_0
//  224   {
//  225       HalLcdWriteString( "Init Server.......", HAL_LCD_LINE_2 );
        ; Setup parameters for call to function HalLcdWriteString
        MOV     R2,#`?<Constant "Init Server.......">` & 0xff
        MOV     R3,#(`?<Constant "Init Server.......">` >> 8) & 0xff
        SJMP    ??Init_Server_1
//  226   Delay_ms(500);
//  227   }
//  228   else
//  229   {
//  230       HalLcdWriteString("Init Server...[OK]", HAL_LCD_LINE_2);
??Init_Server_0:
        ; Setup parameters for call to function HalLcdWriteString
        MOV     R2,#`?<Constant "Init Server...[OK]">` & 0xff
        MOV     R3,#(`?<Constant "Init Server...[OK]">` >> 8) & 0xff
//  231  Delay_ms(500);
//  232   }
??Init_Server_1:
        SJMP    ?Subroutine1
        CFI EndBlock cfiBlock13
//  233   
//  234 /*  
//  235   while(strstr((char const *)Recdata,"OK")==NULL)
//  236   {
//  237  //   LED3=1;
//  238     DelayMS(500);
//  239 //    LED3=0;
//  240 //    LCD_P8x16Str(8,2,"Init Server...");
//  241  HalLcdWriteString( "Init Server...", HAL_LCD_LINE_2 );   
//  242     clearBuff();
//  243 //    Print_Str(SERVER_C);
//  244     HalUARTWrite (0x00,SERVER_C, strlen(SERVER_C));
//  245     DelayMS(500);
//  246   }
//  247 //  LCD_P8x16Str(8,2,"TCP Server[OK]");
//  248   HalLcdWriteString( "TCP Server[OK]", HAL_LCD_LINE_2 );
//  249 //  LED3=0;*/
//  250 }

        RSEG BANKED_CODE:CODE:NOROOT(0)
?Subroutine2:
        CFI Block cfiCond14 Using cfiCommon0
        CFI NoFunction
        CFI Conditional ??CrossCallReturnLabel_0
        CFI R6 load(1, XDATA, add(CFA_XSP16, literal(-10)))
        CFI VB load(1, XDATA, add(CFA_XSP16, literal(-9)))
        CFI V0 load(1, XDATA, add(CFA_XSP16, literal(-8)))
        CFI V1 load(1, XDATA, add(CFA_XSP16, literal(-7)))
        CFI R7 load(1, XDATA, add(CFA_XSP16, literal(-6)))
        CFI ?RET_LOW load(1, XDATA, add(CFA_XSP16, literal(-5)))
        CFI ?RET_HIGH load(1, XDATA, add(CFA_XSP16, literal(-4)))
        CFI ?BRET_EXT load(1, XDATA, add(CFA_XSP16, literal(-3)))
        CFI DPL0 load(1, XDATA, add(CFA_XSP16, literal(-2)))
        CFI DPH0 load(1, XDATA, add(CFA_XSP16, literal(-1)))
        CFI CFA_SP SP+0
        CFI CFA_XSP16 add(XSP16, 10)
        CFI Block cfiCond15 Using cfiCommon0
        CFI (cfiCond15) NoFunction
        CFI (cfiCond15) Conditional ??CrossCallReturnLabel_1
        CFI (cfiCond15) R6 load(1, XDATA, add(CFA_XSP16, literal(-10)))
        CFI (cfiCond15) VB load(1, XDATA, add(CFA_XSP16, literal(-9)))
        CFI (cfiCond15) V0 load(1, XDATA, add(CFA_XSP16, literal(-8)))
        CFI (cfiCond15) V1 load(1, XDATA, add(CFA_XSP16, literal(-7)))
        CFI (cfiCond15) R7 load(1, XDATA, add(CFA_XSP16, literal(-6)))
        CFI (cfiCond15) ?RET_LOW load(1, XDATA, add(CFA_XSP16, literal(-5)))
        CFI (cfiCond15) ?RET_HIGH load(1, XDATA, add(CFA_XSP16, literal(-4)))
        CFI (cfiCond15) ?BRET_EXT load(1, XDATA, add(CFA_XSP16, literal(-3)))
        CFI (cfiCond15) DPL0 load(1, XDATA, add(CFA_XSP16, literal(-2)))
        CFI (cfiCond15) DPH0 load(1, XDATA, add(CFA_XSP16, literal(-1)))
        CFI (cfiCond15) CFA_SP SP+0
        CFI (cfiCond15) CFA_XSP16 add(XSP16, 10)
        CFI Block cfiPicker16 Using cfiCommon1
        CFI (cfiPicker16) NoFunction
        CFI (cfiPicker16) Picker
        MOV     R1,#0x0
        LCALL   ??HalUARTWrite?relay
        ; Setup parameters for call to function Delay_ms
        ; Setup parameters for call to function Delay_ms
        MOV     R2,#0x32
        MOV     R3,#0x0
        LCALL   ??Delay_ms?relay
        ; Setup parameters for call to function strstr
        ; Setup parameters for call to function strstr
        LCALL   ?Subroutine4 & 0xFFFF
??CrossCallReturnLabel_5:
        MOV     R1,#0x2
        RET
        CFI EndBlock cfiCond14
        CFI EndBlock cfiCond15
        CFI EndBlock cfiPicker16

        RSEG BANKED_CODE:CODE:NOROOT(0)
?Subroutine4:
        CFI Block cfiCond17 Using cfiCommon0
        CFI NoFunction
        CFI Conditional ??CrossCallReturnLabel_4
        CFI R6 load(1, XDATA, add(CFA_XSP16, literal(-10)))
        CFI VB load(1, XDATA, add(CFA_XSP16, literal(-9)))
        CFI V0 load(1, XDATA, add(CFA_XSP16, literal(-8)))
        CFI V1 load(1, XDATA, add(CFA_XSP16, literal(-7)))
        CFI R7 load(1, XDATA, add(CFA_XSP16, literal(-6)))
        CFI ?RET_LOW load(1, XDATA, add(CFA_XSP16, literal(-5)))
        CFI ?RET_HIGH load(1, XDATA, add(CFA_XSP16, literal(-4)))
        CFI ?BRET_EXT load(1, XDATA, add(CFA_XSP16, literal(-3)))
        CFI DPL0 load(1, XDATA, add(CFA_XSP16, literal(-2)))
        CFI DPH0 load(1, XDATA, add(CFA_XSP16, literal(-1)))
        CFI CFA_SP SP+0
        CFI CFA_XSP16 add(XSP16, 10)
        CFI Block cfiCond18 Using cfiCommon0
        CFI (cfiCond18) NoFunction
        CFI (cfiCond18) Conditional ??CrossCallReturnLabel_5, ??CrossCallReturnLabel_0
        CFI (cfiCond18) R6 load(1, XDATA, add(CFA_XSP16, literal(-10)))
        CFI (cfiCond18) VB load(1, XDATA, add(CFA_XSP16, literal(-9)))
        CFI (cfiCond18) V0 load(1, XDATA, add(CFA_XSP16, literal(-8)))
        CFI (cfiCond18) V1 load(1, XDATA, add(CFA_XSP16, literal(-7)))
        CFI (cfiCond18) R7 load(1, XDATA, add(CFA_XSP16, literal(-6)))
        CFI (cfiCond18) ?RET_LOW load(1, XDATA, add(CFA_XSP16, literal(-5)))
        CFI (cfiCond18) ?RET_HIGH load(1, XDATA, add(CFA_XSP16, literal(-4)))
        CFI (cfiCond18) ?BRET_EXT load(1, XDATA, add(CFA_XSP16, literal(-3)))
        CFI (cfiCond18) DPL0 load(1, XDATA, add(CFA_XSP16, literal(-2)))
        CFI (cfiCond18) DPH0 load(1, XDATA, add(CFA_XSP16, literal(-1)))
        CFI (cfiCond18) CFA_SP SP+0
        CFI (cfiCond18) CFA_XSP16 add(XSP16, 10)
        CFI Block cfiCond19 Using cfiCommon0
        CFI (cfiCond19) NoFunction
        CFI (cfiCond19) Conditional ??CrossCallReturnLabel_5, ??CrossCallReturnLabel_1
        CFI (cfiCond19) R6 load(1, XDATA, add(CFA_XSP16, literal(-10)))
        CFI (cfiCond19) VB load(1, XDATA, add(CFA_XSP16, literal(-9)))
        CFI (cfiCond19) V0 load(1, XDATA, add(CFA_XSP16, literal(-8)))
        CFI (cfiCond19) V1 load(1, XDATA, add(CFA_XSP16, literal(-7)))
        CFI (cfiCond19) R7 load(1, XDATA, add(CFA_XSP16, literal(-6)))
        CFI (cfiCond19) ?RET_LOW load(1, XDATA, add(CFA_XSP16, literal(-5)))
        CFI (cfiCond19) ?RET_HIGH load(1, XDATA, add(CFA_XSP16, literal(-4)))
        CFI (cfiCond19) ?BRET_EXT load(1, XDATA, add(CFA_XSP16, literal(-3)))
        CFI (cfiCond19) DPL0 load(1, XDATA, add(CFA_XSP16, literal(-2)))
        CFI (cfiCond19) DPH0 load(1, XDATA, add(CFA_XSP16, literal(-1)))
        CFI (cfiCond19) CFA_SP SP+0
        CFI (cfiCond19) CFA_XSP16 add(XSP16, 10)
        CFI Block cfiPicker20 Using cfiCommon1
        CFI (cfiPicker20) NoFunction
        CFI (cfiPicker20) Picker
        MOV     R4,#`?<Constant "OK">` & 0xff
        MOV     R5,#(`?<Constant "OK">` >> 8) & 0xff
        MOV     R2,#Recdata & 0xff
        MOV     R3,#(Recdata >> 8) & 0xff
        LCALL   ??strstr?relay
        MOV     ?V0 + 1,R3
        MOV     A,R2
        ORL     A,?V0 + 1
        RET
        CFI EndBlock cfiCond17
        CFI EndBlock cfiCond18
        CFI EndBlock cfiCond19
        CFI EndBlock cfiPicker20

        RSEG BANK_RELAYS:CODE:REORDER:NOROOT(0)
??clearBuff?relay:
        LCALL   ?BDISPATCH
        DATA
        DC24    clearBuff

        RSEG BANK_RELAYS:CODE:REORDER:NOROOT(0)
??SetWifi?relay:
        LCALL   ?BDISPATCH
        DATA
        DC24    SetWifi

        RSEG BANK_RELAYS:CODE:REORDER:NOROOT(0)
??dispIGTState?relay:
        LCALL   ?BDISPATCH
        DATA
        DC24    dispIGTState

        RSEG BANK_RELAYS:CODE:REORDER:NOROOT(0)
??Init_ESP8266?relay:
        LCALL   ?BDISPATCH
        DATA
        DC24    Init_ESP8266

        RSEG BANK_RELAYS:CODE:REORDER:NOROOT(0)
??Wifi_Rst?relay:
        LCALL   ?BDISPATCH
        DATA
        DC24    Wifi_Rst

        RSEG BANK_RELAYS:CODE:REORDER:NOROOT(0)
??Connect_Wifi?relay:
        LCALL   ?BDISPATCH
        DATA
        DC24    Connect_Wifi

        RSEG BANK_RELAYS:CODE:REORDER:NOROOT(0)
??Init_MUX?relay:
        LCALL   ?BDISPATCH
        DATA
        DC24    Init_MUX

        RSEG BANK_RELAYS:CODE:REORDER:NOROOT(0)
??Init_Server?relay:
        LCALL   ?BDISPATCH
        DATA
        DC24    Init_Server

        RSEG XDATA_ROM_C:CONST:REORDER:NOROOT(0)
        DATA8
`?<Constant "IGTH">`:
        DB "IGTH"

        RSEG XDATA_ROM_C:CONST:REORDER:NOROOT(0)
        DATA8
`?<Constant "IGTL">`:
        DB "IGTL"

        RSEG XDATA_ROM_C:CONST:REORDER:NOROOT(0)
        DATA8
`?<Constant "Init_ESP8266\\r\\n">`:
        DB "Init_ESP8266\015\012"

        RSEG XDATA_ROM_C:CONST:REORDER:NOROOT(0)
        DATA8
`?<Constant "AT+RST\\r\\n">`:
        DB "AT+RST\015\012"

        RSEG XDATA_ROM_C:CONST:REORDER:NOROOT(0)
        DATA8
`?<Constant "AT\\r\\n">`:
        DB "AT\015\012"

        RSEG XDATA_ROM_C:CONST:REORDER:NOROOT(0)
        DATA8
`?<Constant "connect.......">`:
        DB "connect......."

        RSEG XDATA_ROM_C:CONST:REORDER:NOROOT(0)
        DATA8
`?<Constant "OK">`:
        DB "OK"

        RSEG XDATA_ROM_C:CONST:REORDER:NOROOT(0)
        DATA8
`?<Constant "AT+CIPMUX=1\\r\\n">`:
        DB "AT+CIPMUX=1\015\012"

        RSEG XDATA_ROM_C:CONST:REORDER:NOROOT(0)
        DATA8
`?<Constant "Init MUX.......">`:
        DB "Init MUX......."

        RSEG XDATA_ROM_C:CONST:REORDER:NOROOT(0)
        DATA8
`?<Constant "Init MUX...[OK]">`:
        DB "Init MUX...[OK]"

        RSEG XDATA_ROM_C:CONST:REORDER:NOROOT(0)
        DATA8
`?<Constant "AT+CIPSERVER=1,5000\\r\\n">`:
        DB "AT+CIPSERVER=1,5000\015\012"

        RSEG XDATA_ROM_C:CONST:REORDER:NOROOT(0)
        DATA8
`?<Constant "Init Server.......">`:
        DB "Init Server......."

        RSEG XDATA_ROM_C:CONST:REORDER:NOROOT(0)
        DATA8
`?<Constant "Init Server...[OK]">`:
        DB "Init Server...[OK]"

        END
//  251 
//  252 /*
//  253 int Send_Wifi_DATA(char *str, int len)
//  254 {
//  255   char SEND_C[20];
//  256   memset(SEND_C,0,20);
//  257   sprintf(SEND_C,"AT+CIPSEND=%d,%d\r\n",g_thread,len);
//  258   
//  259   Print_Str(SEND_C);
//  260   DelayMS(50);
//  261   
//  262   while(strstr((char const *)Recdata,">")==NULL)
//  263   {
//  264     if(g_timeout>50)
//  265     {
//  266         g_timeout=0;
//  267         return -1;
//  268     }
//  269     DelayMS(5);
//  270     g_timeout++;
//  271     
//  272   }
//  273   Print_Str(str);
//  274   return 0;
//  275 }
//  276 */
//  277 
//  278 /****************************************************************
//  279 主函数							
//  280 ****************************************************************/
//  281 
//  282 
// 
// 289 bytes in segment BANKED_CODE
//  48 bytes in segment BANK_RELAYS
//   2 bytes in segment SFR_AN
// 163 bytes in segment XDATA_ROM_C
// 
// 337 bytes of CODE  memory
// 163 bytes of CONST memory
//   0 bytes of DATA  memory (+ 2 bytes shared)
//
//Errors: none
//Warnings: none
